******************************************************************************
                  TI ARM Linker PC v20.2.7                     
******************************************************************************
>> Linked Tue Sep  6 16:44:04 2022

OUTPUT FILE NAME:   <outofbox_msp432p4111_MSP_EXP432P4111_tirtos_ccs.out>
ENTRY POINT SYMBOL: "_c_int00"  address: 00008f11


MEMORY CONFIGURATION

         name            origin    length      used     unused   attr    fill
----------------------  --------  ---------  --------  --------  ----  --------
  MAIN                  00000000   00200000  0000ca66  001f359a  R  X
  INFO                  00200000   00008000  00000000  00008000  R  X
  SRAM_CODE             01000000   00040000  000092e6  00036d1a  RW X
  SRAM_DATA             20000000   00040000  000092e6  00036d1a  RW  


SEGMENT ALLOCATION MAP

run origin  load origin   length   init length attrs members
----------  ----------- ---------- ----------- ----- -------
00000000    00000000    0000ca70   0000ca70    r-x
  00000000    00000000    0000003c   0000003c    r-- .resetVecs
  00000040    00000040    0000bd22   0000bd22    r-x .text
  0000bd68    0000bd68    00000a90   00000a90    r-- .const
  0000c7f8    0000c7f8    00000278   00000278    r-- .cinit
20000140    20000140    00008000   00000000    r--
  20000140    20000140    00008000   00000000    r-- .priheap
20008140    20008140    00000da8   00000000    rw-
  20008140    20008140    00000796   00000000    rw- .data
  200088d8    200088d8    00000610   00000000    rw- .bss
2003fc00    2003fc00    00000400   00000000    rw-
  2003fc00    2003fc00    00000400   00000000    rw- .stack


SECTION ALLOCATION MAP

 output                                  attributes/
section   page    origin      length       input sections
--------  ----  ----------  ----------   ----------------
.text      0    00000040    0000bd22     
                  00000040    00000a4e     rtsv7M4_T_le_v4SPD16_eabi.lib : _printfi.c.obj (.text:__TI_printfi)
                  00000a8e    00000002     ti_drivers_config.obj (.text:Board_initHook)
                  00000a90    00000460     rtsv7M4_T_le_v4SPD16_eabi.lib : strtod.c.obj (.text:strtod)
                  00000ef0    000003f4     uart_thread.obj (.text:uartThread)
                  000012e4    000002d8     drivers_msp432p4x1xi.aem4f : UARTMSP432.oem4f (.text:UARTMSP432_open)
                  000015bc    000002d4                                : PowerMSP432.oem4f (.text:Power_sleep)
                  00001890    000002b8     led_thread.obj (.text:ledThread)
                  00001b48    00000298     callbacks.obj (.text:debounceTimer_Callback)
                  00001de0    0000028a     msp432p4xx_driverlib.lib : pcm.o (.text:__PCM_setPowerStateAdvanced)
                  0000206a    00000002     drivers_msp432p4x1xi.aem4f : PWMTimerMSP432.oem4f (.text:PWMTimerMSP432_init)
                  0000206c    00000284                                : PowerMSP432.oem4f (.text:initPerfControl)
                  000022f0    00000270     rtsv7M4_T_le_v4SPD16_eabi.lib : _printfi.c.obj (.text:_pconv_a)
                  00002560    00000228     lcd_hal.obj (.text:LCD_showChar)
                  00002788    00000208     drivers_msp432p4x1xi.aem4f : PWMTimerMSP432.oem4f (.text:PWMTimerMSP432_open)
                  00002990    000001d4     cJSON.obj (.text:utf16_literal_to_utf8)
                  00002b64    000001d0     rtsv7M4_T_le_v4SPD16_eabi.lib : _printfi.c.obj (.text:_pconv_g)
                  00002d34    000001bc     main_tirtos.obj (.text:main)
                  00002ef0    000001b6     rtsv7M4_T_le_v4SPD16_eabi.lib : fd_add_t2.asm.obj (.text)
                  000030a6    00000002     dpl_msp432p4x1xi.aem4f : PowerMSP432_tirtos.oem4f (.text:PowerMSP432_initPolicy)
                  000030a8    000001b4     lcd_hal.obj (.text:LCD_showTemperatureC)
                  0000325c    00000004     release_pem4f.oem4f (.text:.bootCodeSection:ti_sysbios_family_arm_msp432_init_Boot_init__I)
                  00003260    000001b0     sysbios.aem4f : BIOS.obj (.text:mq_open)
                  00003410    000001a0     cJSON.obj (.text:parse_string)
                  000035b0    000001a0     temperature_thread.obj (.text:temperatureThread)
                  00003750    00000194     led_thread.obj (.text:changeLedTogglePeriod)
                  000038e4    00000170     drivers_msp432p4x1xi.aem4f : GPIOMSP432.oem4f (.text:GPIO_setConfig)
                  00003a54    00000160     msp432p4xx_driverlib.lib : adc14.o (.text:_getIndexForMemRegister)
                  00003bb4    0000015c                              : pcm.o (.text:__PCM_setPowerModeAdvanced)
                  00003d10    0000015c     led_thread.obj (.text:changeLedColor)
                  00003e6c    0000014c     drivers_msp432p4x1xi.aem4f : TimerMSP432.oem4f (.text:TimerMSP432_open)
                  00003fb8    0000013c     rtsv7M4_T_le_v4SPD16_eabi.lib : _printfi.c.obj (.text:_pconv_e)
                  000040f4    00000136                                   : fd_div_t2.asm.obj (.text)
                  0000422a    00000006     drivers_msp432p4x1xi.aem4f : ADCMSP432.oem4f (.text:ADCMSP432_control)
                  00004230    0000012c     sysbios.aem4f : BIOS.obj (.text:ti_sysbios_knl_Semaphore_pend__E)
                  0000435c    00000124     rtsv7M4_T_le_v4SPD16_eabi.lib : _printfi.c.obj (.text:fcvt)
                  00004480    0000011c     msp432p4xx_driverlib.lib : uart.o (.text:UART_initModule)
                  0000459c    00000114     drivers_msp432p4x1xi.aem4f : PWMTimerMSP432.oem4f (.text:PWMTimerMSP432_setPeriod)
                  000046b0    00000110     callbacks.obj (.text:gpioButton0_Callback)
                  000047c0    00000110     rtsv7M4_T_le_v4SPD16_eabi.lib : s_scalbn.c.obj (.text:scalbn)
                  000048d0    0000010a     cJSON.obj (.text:parse_object)
                  000049da    00000002     drivers_msp432p4x1xi.aem4f : TimerMSP432.oem4f (.text:TimerMSP432_init)
                  000049dc    00000108     msp432p4xx_driverlib.lib : pcm.o (.text:__PCM_setCoreVoltageLevelAdvanced)
                  00004ae4    00000004                              : cpu.o (.text:CPU_wfi)
                  00004ae8    00000108     sysbios.aem4f : BIOS.obj (.text:ti_sysbios_knl_Task_postInit__I)
                  00004bf0    00000108                   : BIOS.obj (.text:xdc_runtime_Startup_startMods__I)
                  00004cf8    00000104                   : BIOS.obj (.text:ti_sysbios_knl_Task_Instance_finalize__E)
                  00004dfc    000000fc     drivers_msp432p4x1xi.aem4f : ADCMSP432.oem4f (.text:ADCMSP432_convert)
                  00004ef8    000000fc     lcd_thread.obj (.text:lcdThread)
                  00004ff4    000000fc     rtsv7M4_T_le_v4SPD16_eabi.lib : fd_mul_t2.asm.obj (.text)
                  000050f0    000000f0     sysbios.aem4f : BIOS.obj (.text:pthread_create)
                  000051e0    000000f0                   : m3_Hwi_asm.obj (.text:ti_sysbios_family_arm_m3_Hwi_dispatch__I)
                  000052d0    000000e9     cJSON.obj (.text:parse_value)
                  000053b9    00000001     --HOLE-- [fill = 0]
                  000053ba    00000002     drivers_msp432p4x1xi.aem4f : UARTMSP432.oem4f (.text:UARTMSP432_init)
                  000053bc    000000e4     msp432p4xx_driverlib.lib : cs.o (.text:CS_startHFXTWithTimeout)
                  000054a0    000000e0                              : cs.o (.text:CS_startLFXTWithTimeout)
                  00005580    000000e0     sysbios.aem4f : BIOS.obj (.text:ti_sysbios_knl_Task_Instance_init__E)
                  00005660    000000dc     lcd_hal.obj (.text:LCD_scrollString)
                  0000573c    000000dc     drivers_msp432p4x1xi.aem4f : UARTMSP432.oem4f (.text:UARTMSP432_readPolling)
                  00005818    000000dc     msp432p4xx_driverlib.lib : cs.o (.text:_CSGetHFXTFrequency)
                  000058f4    00000004     dpl_msp432p4x1xi.aem4f : ClockP_tirtos.oem4f (.text:ClockP_setTimeout)
                  000058f8    000000d8     sysbios.aem4f : BIOS.obj (.text:ti_sysbios_knl_Mailbox_Instance_init__E)
                  000059d0    000000d0                   : BIOS.obj (.text:ti_sysbios_heaps_HeapMem_alloc__E)
                  00005aa0    000000c6     cJSON.obj (.text:parse_array)
                  00005b66    000000c4     drivers_msp432p4x1xi.aem4f : UARTMSP432.oem4f (.text:UARTMSP432_hwiIntFxn)
                  00005c2a    00000002     rtsv7M4_T_le_v4SPD16_eabi.lib : _lock.c.obj (.text:_nop)
                  00005c2c    000000c0     drivers_msp432p4x1xi.aem4f : UARTMSP432.oem4f (.text:UARTMSP432_control)
                  00005cec    000000bc                                : TimerMSP432.oem4f (.text:TimerMSP432_setPeriod)
                  00005da8    000000bc                                : TimerMSP432.oem4f (.text:TimerMSP432_start)
                  00005e64    00000004     dpl_msp432p4x1xi.aem4f : ClockP_tirtos.oem4f (.text:ClockP_start)
                  00005e68    000000bc     sysbios.aem4f : BIOS.obj (.text:ti_sysbios_knl_Task_sleep__E)
                  00005f24    000000b8     drivers_msp432p4x1xi.aem4f : UARTMSP432.oem4f (.text:initHw)
                  00005fdc    000000b8                                : UARTMSP432.oem4f (.text:readTaskCallback)
                  00006094    00000004     dpl_msp432p4x1xi.aem4f : ClockP_tirtos.oem4f (.text:ClockP_stop)
                  00006098    000000b8     sysbios.aem4f : BIOS.obj (.text:ti_sysbios_family_arm_m3_Hwi_Instance_init__E)
                  00006150    000000b4     msp432p4xx_driverlib.lib : adc14.o (.text:ADC14_configureConversionMemory)
                  00006204    000000b4                              : lcd_f.o (.text:LCD_F_setPinsAsLCDFunction)
                  000062b8    000000b4     drivers_msp432p4x1xi.aem4f : UARTMSP432.oem4f (.text:UARTMSP432_writePolling)
                  0000636c    000000b1     rtsv7M4_T_le_v4SPD16_eabi.lib : _printfi.c.obj (.text:_ltostr)
                  0000641d    00000001     --HOLE-- [fill = 0]
                  0000641e    00000002                                   : div0.asm.obj (.text)
                  00006420    000000b0     sysbios.aem4f : BIOS.obj (.text:ti_sysbios_knl_Clock_workFuncDynamic__E)
                  000064d0    000000ae     cJSON.obj (.text:parse_hex4)
                  0000657e    00000002     release_pem4f.oem4f (.text:ti_sysbios_BIOS_nullFunc__I)
                  00006580    000000ac     drivers_msp432p4x1xi.aem4f : GPIOMSP432.oem4f (.text:GPIO_init)
                  0000662c    00000004     dpl_msp432p4x1xi.aem4f : HwiP_tirtos.oem4f (.text:HwiP_disable)
                  00006630    000000aa     sysbios.aem4f : BIOS.obj (.text:xdc_runtime_Core_createObject__I)
                  000066da    00000002     --HOLE-- [fill = 0]
                  000066dc    000000a8     cJSON.obj (.text:parse_number)
                  00006784    000000a8     drivers_msp432p4x1xi.aem4f : UARTMSP432.oem4f (.text:readTaskBlocking)
                  0000682c    00000004     dpl_msp432p4x1xi.aem4f : SemaphoreP_tirtos.oem4f (.text:SemaphoreP_post)
                  00006830    000000a8     sysbios.aem4f : BIOS.obj (.text:ti_sysbios_family_arm_msp432_Timer_periodicStub__E)
                  000068d8    000000a4     drivers_msp432p4x1xi.aem4f : TimerMSP432.oem4f (.text:initTimerHardware)
                  0000697c    00000004     release_pem4f.oem4f (.text:ti_sysbios_BIOS_RtsGateProxy_enter__E)
                  00006980    000000a4     sysbios.aem4f : BIOS.obj (.text:ti_sysbios_knl_Task_setPri__E)
                  00006a24    000000a2     drivers_msp432p4x1xi.aem4f : UARTMSP432.oem4f (.text:UARTMSP432_write)
                  00006ac6    00000002     --HOLE-- [fill = 0]
                  00006ac8    000000a0     auto_init.aem4f : auto_init.oem4f (.text)
                  00006b68    000000a0     drivers_msp432p4x1xi.aem4f : UARTMSP432.oem4f (.text:readIsrTextCallback)
                  00006c08    0000009c                                : PWMTimerMSP432.oem4f (.text:PWMTimerMSP432_stop)
                  00006ca4    0000009c     rtsv7M4_T_le_v4SPD16_eabi.lib : memcpy_t2.asm.obj (.text)
                  00006d40    0000009c     drivers_msp432p4x1xi.aem4f : TimerMSP432.oem4f (.text:setT32TickCount)
                  00006ddc    0000009c                                : TimerMSP432.oem4f (.text:setTATickCount)
                  00006e78    00000098     lcd_hal.obj (.text:LCD_init)
                  00006f10    00000098     drivers_msp432p4x1xi.aem4f : UARTMSP432.oem4f (.text:UARTMSP432_close)
                  00006fa8    00000096     rtsv7M4_T_le_v4SPD16_eabi.lib : ull_div_t2.asm.obj (.text)
                  0000703e    00000002     --HOLE-- [fill = 0]
                  00007040    00000094     drivers_msp432p4x1xi.aem4f : PWMTimerMSP432.oem4f (.text:PWMTimerMSP432_setDuty)
                  000070d4    00000004     release_pem4f.oem4f (.text:ti_sysbios_BIOS_RtsGateProxy_leave__E)
                  000070d8    00000094     sysbios.aem4f : BIOS.obj (.text:_pthread_removeThreadKeys)
                  0000716c    00000094     callbacks.obj (.text:gpioButton1_Callback)
                  00007200    00000094     sysbios.aem4f : BIOS.obj (.text:ti_sysbios_family_arm_m3_Hwi_initNVIC__E)
                  00007294    00000004     release_pem4f.oem4f (.text:ti_sysbios_family_arm_m3_Hwi_delete)
                  00007298    00000094     sysbios.aem4f : BIOS.obj (.text:ti_sysbios_knl_Task_exit__E)
                  0000732c    00000092     drivers_msp432p4x1xi.aem4f : UARTMSP432.oem4f (.text:writeData)
                  000073be    00000002     --HOLE-- [fill = 0]
                  000073c0    00000090     cJSON.obj (.text:cJSON_ParseWithOpts)
                  00007450    00000090     sysbios.aem4f : BIOS.obj (.text:ti_sysbios_knl_Task_Module_startup__E)
                  000074e0    0000008c     drivers_msp432p4x1xi.aem4f : ADCMSP432.oem4f (.text:ADCMSP432_open)
                  0000756c    0000008c                                : PowerMSP432.oem4f (.text:Power_init)
                  000075f8    0000008c                                : UARTMSP432.oem4f (.text:readIsrTextBlocking)
                  00007684    0000008c     sysbios.aem4f : m3_TaskSupport_asm.obj (.text:ti_sysbios_family_arm_m3_TaskSupport_buildTaskStack)
                  00007710    0000008c                   : BIOS.obj (.text:xdc_runtime_Memory_alloc__E)
                  0000779c    00000088     msp432p4xx_driverlib.lib : gpio.o (.text:GPIO_setAsPeripheralModuleFunctionOutputPin)
                  00007824    00000088     drivers_msp432p4x1xi.aem4f : PWMTimerMSP432.oem4f (.text:PWMTimerMSP432_close)
                  000078ac    00000004     release_pem4f.oem4f (.text:ti_sysbios_family_arm_m3_TaskSupport_Module__startupDone__S)
                  000078b0    00000088     sysbios.aem4f : BIOS.obj (.text:ti_sysbios_knl_Mailbox_post__E)
                  00007938    00000086     rtsv7M4_T_le_v4SPD16_eabi.lib : fd_cmp_t2.asm.obj (.text:__aeabi_cdcmple)
                  000079be    00000086                                   : fd_cmp_t2.asm.obj (.text:__aeabi_cdrcmple)
                  00007a44    00000004     release_pem4f.oem4f (.text:ti_sysbios_heaps_HeapMem_Module_GateProxy_enter__E)
                  00007a48    00000086     sysbios.aem4f : BIOS.obj (.text:xdc_runtime_Core_constructObject__I)
                  00007ace    00000002     --HOLE-- [fill = 0]
                  00007ad0    00000084     msp432p4xx_driverlib.lib : pcm.o (.text:PCM_gotoLPM3)
                  00007b54    00000084     drivers_msp432p4x1xi.aem4f : TimerMSP432.oem4f (.text:TimerMSP432_stop)
                  00007bd8    00000084                                : PowerMSP432.oem4f (.text:restartHFXT)
                  00007c5c    00000004     release_pem4f.oem4f (.text:ti_sysbios_heaps_HeapMem_Module_GateProxy_leave__E)
                  00007c60    00000084     sysbios.aem4f : BIOS.obj (.text:ti_sysbios_family_arm_m3_Hwi_postInit__I)
                  00007ce4    00000004     release_pem4f.oem4f (.text:ti_sysbios_knl_Clock_TimerProxy_getCurrentTick__E)
                  00007ce8    00000084     sysbios.aem4f : BIOS.obj (.text:ti_sysbios_heaps_HeapMem_free__E)
                  00007d6c    00000080     drivers_msp432p4x1xi.aem4f : PWMTimerMSP432.oem4f (.text:PWMTimerMSP432_start)
                  00007dec    00000080     rtsv7M4_T_le_v4SPD16_eabi.lib : s_floorf.c.obj (.text:floorf)
                  00007e6c    0000007c     drivers_msp432p4x1xi.aem4f : PWMTimerMSP432.oem4f (.text:setConstraints)
                  00007ee8    0000007a     rtsv7M4_T_le_v4SPD16_eabi.lib : memset_t2.asm.obj (.text)
                  00007f62    00000002     --HOLE-- [fill = 0]
                  00007f64    00000078     drivers_msp432p4x1xi.aem4f : TimerMSP432.oem4f (.text:TimerMSP432_allocateTimerResource)
                  00007fdc    00000078     cJSON.obj (.text:cJSON_Delete)
                  00008054    00000004     release_pem4f.oem4f (.text:ti_sysbios_knl_Clock_TimerProxy_getMaxTicks__E)
                  00008058    00000074     sysbios.aem4f : BIOS.obj (.text:ti_sysbios_knl_Clock_walkQueueDynamic__E)
                  000080cc    00000004     release_pem4f.oem4f (.text:ti_sysbios_knl_Clock_TimerProxy_setNextTick__E)
                  000080d0    00000074     sysbios.aem4f : BIOS.obj (.text:ti_sysbios_knl_Mailbox_pend__E)
                  00008144    00000070     msp432p4xx_driverlib.lib : lcd_f.o (.text:LCD_F_setPinAsCOM)
                  000081b4    00000070     led_thread.obj (.text:calculateNewTogglePeriod)
                  00008224    00000004     release_pem4f.oem4f (.text:ti_sysbios_knl_Clock_delete)
                  00008228    00000070     sysbios.aem4f : BIOS.obj (.text:ti_sysbios_heaps_HeapMem_initPrimary__I)
                  00008298    00000070                   : BIOS.obj (.text:ti_sysbios_knl_Mailbox_Instance_finalize__E)
                  00008308    0000006e     rtsv7M4_T_le_v4SPD16_eabi.lib : _printfi.c.obj (.text:_mcpy)
                  00008376    0000006e                                   : s_roundf.c.obj (.text:roundf)
                  000083e4    00000004     release_pem4f.oem4f (.text:ti_sysbios_knl_Semaphore_delete)
                  000083e8    0000006c     sysbios.aem4f : BIOS.obj (.text:ti_sysbios_knl_Swi_restoreHwi__E)
                  00008454    0000006a     drivers_msp432p4x1xi.aem4f : UARTMSP432.oem4f (.text:UARTMSP432_writeCancel)
                  000084be    0000006a                                : PWMTimerMSP432.oem4f (.text:perfChangeNotifyFxn)
                  00008528    00000068                                : GPIOMSP432.oem4f (.text:GPIO_hwiIntFxn)
                  00008590    00000068                                : PowerMSP432.oem4f (.text:PowerMSP432_getFreqs)
                  000085f8    00000068     callbacks.obj (.text:debounceGPIO)
                  00008660    00000068     rtsv7M4_T_le_v4SPD16_eabi.lib : copy_decompress_lzss.c.obj (.text:decompress:lzss:__TI_decompress_lzss)
                  000086c8    00000068     drivers_msp432p4x1xi.aem4f : PWMTimerMSP432.oem4f (.text:initHw)
                  00008730    00000068     sysbios.aem4f : BIOS.obj (.text:ti_sysbios_knl_Clock_startI__E)
                  00008798    00000066                   : BIOS.obj (.text:xdc_runtime_Core_deleteObject__I)
                  000087fe    00000002     --HOLE-- [fill = 0]
                  00008800    00000064     rtsv7M4_T_le_v4SPD16_eabi.lib : s_frexp.c.obj (.text:frexp)
                  00008864    00000004     release_pem4f.oem4f (.text:ti_sysbios_knl_Task_delete)
                  00008868    00000064     sysbios.aem4f : BIOS.obj (.text:ti_sysbios_family_arm_m3_Hwi_dispatchC__I)
                  000088cc    00000060     drivers_msp432p4x1xi.aem4f : ADCMSP432.oem4f (.text:ADCMSP432_convertToMicroVolts)
                  0000892c    00000060                                : GPIOMSP432.oem4f (.text:GPIO_setCallback)
                  0000898c    00000004     release_pem4f.oem4f (.text:xdc_runtime_System_Module_GateProxy_enter__E)
                  00008990    00000060     sysbios.aem4f : BIOS.obj (.text:pthread_exit)
                  000089f0    00000060                   : BIOS.obj (.text:ti_sysbios_family_arm_msp432_Timer_setNextTick__E)
                  00008a50    00000060                   : BIOS.obj (.text:ti_sysbios_knl_Semaphore_post__E)
                  00008ab0    00000060                   : BIOS.obj (.text:ti_sysbios_knl_Swi_run__I)
                  00008b10    0000005e     msp432p4xx_driverlib.lib : pcm.o (.text:PCM_getCoreVoltageLevel)
                  00008b6e    00000002     --HOLE-- [fill = 0]
                  00008b70    0000005c     lcd_hal.obj (.text:LCD_updateAnimationMemory)
                  00008bcc    0000005c     lcd_hal.obj (.text:LCD_updateMemory)
                  00008c28    0000005c     callbacks.obj (.text:blinkTimer_Callback)
                  00008c84    00000004     release_pem4f.oem4f (.text:xdc_runtime_System_Module_GateProxy_leave__E)
                  00008c88    0000005c     sysbios.aem4f : BIOS.obj (.text:ti_sysbios_family_arm_msp432_Timer_getCurrentTick__E)
                  00008ce4    00000004     --HOLE-- [fill = 0]
                  00008ce8    0000005c                   : BIOS.obj (.text:ti_sysbios_knl_Swi_schedule__I)
                  00008d44    00000004     --HOLE-- [fill = 0]
                  00008d48    0000005c                   : BIOS.obj (.text:ti_sysbios_knl_Task_startCore__E)
                  00008da4    00000004     --HOLE-- [fill = 0]
                  00008da8    0000005c                   : BIOS.obj (.text:xdc_runtime_Startup_exec__E)
                  00008e04    0000005a     msp432p4xx_driverlib.lib : pcm.o (.text:PCM_getPowerMode)
                  00008e5e    0000005a     drivers_msp432p4x1xi.aem4f : ADCMSP432.oem4f (.text:initHw)
                  00008eb8    00000058                                : GPIOMSP432.oem4f (.text:GPIO_write)
                  00008f10    00000058     boot.aem4f : boot.oem4f (.text)
                  00008f68    00000058     drivers_msp432p4x1xi.aem4f : UARTMSP432.oem4f (.text:readIsrBinaryBlocking)
                  00008fc0    00000058     sysbios.aem4f : m3_Hwi_asm_switch.obj (.text:ti_sysbios_family_arm_m3_Hwi_initStacks__E)
                  00009018    00000056     rtsv7M4_T_le_v4SPD16_eabi.lib : _printfi.c.obj (.text:_pconv_f)
                  0000906e    00000002     --HOLE-- [fill = 0]
                  00009070    00000054     msp432p4xx_driverlib.lib : adc14.o (.text:ADC14_initModule)
                  000090c4    00000054                              : pcm.o (.text:PCM_shutdownDevice)
                  00009118    00000054     drivers_msp432p4x1xi.aem4f : TimerMSP432.oem4f (.text:TimerMSP432_freeTimerResource)
                  0000916c    00000054     rtsv7M4_T_le_v4SPD16_eabi.lib : _ltoa.c.obj (.text:__TI_ltoa)
                  000091c0    00000054     release_pem4f.oem4f (.text:ti_sysbios_family_arm_m3_Hwi_create)
                  00009214    00000004     --HOLE-- [fill = 0]
                  00009218    00000054     sysbios.aem4f : BIOS.obj (.text:ti_sysbios_family_arm_msp432_Timer_initDevice__I)
                  0000926c    00000054     release_pem4f.oem4f (.text:ti_sysbios_knl_Mailbox_create)
                  000092c0    00000052     rtsv7M4_T_le_v4SPD16_eabi.lib : _printfi.c.obj (.text:_ecpy)
                  00009312    00000002     --HOLE-- [fill = 0]
                  00009314    00000050     dpl_msp432p4x1xi.aem4f : ClockP_tirtos.oem4f (.text:ClockP_create)
                  00009364    00000050     lcd_hal.obj (.text:LCD_showString)
                  000093b4    00000050     drivers_msp432p4x1xi.aem4f : TimerMSP432.oem4f (.text:TimerMSP432_hwiIntFunction)
                  00009404    00000004     --HOLE-- [fill = 0]
                  00009408    00000050     sysbios.aem4f : BIOS.obj (.text:mq_send)
                  00009458    00000050                   : BIOS.obj (.text:ti_sysbios_family_arm_m3_Hwi_Module_startup__E)
                  000094a8    00000050     release_pem4f.oem4f (.text:ti_sysbios_knl_Task_create)
                  000094f8    0000004e     drivers_msp432p4x1xi.aem4f : TimerMSP432.oem4f (.text:TimerMSP432_close)
                  00009546    00000002     --HOLE-- [fill = 0]
                  00009548    0000004c     msp432p4xx_driverlib.lib : lcd_f.o (.text:LCD_F_initModule)
                  00009594    0000004c     dpl_msp432p4x1xi.aem4f : PowerMSP432_tirtos.oem4f (.text:PowerMSP432_sleepPolicy)
                  000095e0    0000004c     rtsv7M4_T_le_v4SPD16_eabi.lib : atoi.c.obj (.text:atoi)
                  0000962c    0000004c                                   : cpy_tbl.c.obj (.text:copy_in)
                  00009678    0000004c     drivers_msp432p4x1xi.aem4f : UARTMSP432.oem4f (.text:readIsrBinaryCallback)
                  000096c4    0000004c     led_thread.obj (.text:setState)
                  00009710    0000004c     sysbios.aem4f : BIOS.obj (.text:ti_sysbios_family_arm_msp432_Timer_postInit__I)
                  0000975c    00000004     --HOLE-- [fill = 0]
                  00009760    0000004c                   : BIOS.obj (.text:ti_sysbios_family_arm_msp432_Timer_start__E)
                  000097ac    00000004     --HOLE-- [fill = 0]
                  000097b0    0000004c                   : BIOS.obj (.text:ti_sysbios_heaps_HeapMem_getStats__E)
                  000097fc    00000004     --HOLE-- [fill = 0]
                  00009800    0000004c                   : BIOS.obj (.text:ti_sysbios_knl_Swi_runLoop__I)
                  0000984c    00000004     --HOLE-- [fill = 0]
                  00009850    0000004c                   : BIOS.obj (.text:ti_sysbios_knl_Task_allBlockedFunction__I)
                  0000989c    00000004     --HOLE-- [fill = 0]
                  000098a0    0000004c                   : BIOS.obj (.text:ti_sysbios_knl_Task_schedule__I)
                  000098ec    00000048     drivers_msp432p4x1xi.aem4f : PowerMSP432.oem4f (.text:Power_releaseConstraint)
                  00009934    00000048     rtsv7M4_T_le_v4SPD16_eabi.lib : fd_toi_t2.asm.obj (.text)
                  0000997c    00000004     --HOLE-- [fill = 0]
                  00009980    00000048     sysbios.aem4f : BIOS.obj (.text:ti_sysbios_family_arm_m3_Hwi_disableInterrupt__E)
                  000099c8    00000048                   : BIOS.obj (.text:ti_sysbios_family_arm_m3_Hwi_enableInterrupt__E)
                  00009a10    00000048                   : BIOS.obj (.text:ti_sysbios_knl_Mailbox_Module_startup__E)
                  00009a58    00000048                   : BIOS.obj (.text:xdc_runtime_Core_assignParams__I)
                  00009aa0    00000046     drivers_msp432p4x1xi.aem4f : RingBuf.oem4f (.text:RingBuf_put)
                  00009ae6    00000002     --HOLE-- [fill = 0]
                  00009ae8    00000044                                : ADC.oem4f (.text:ADC_init)
                  00009b2c    00000044                                : PWM.oem4f (.text:PWM_init)
                  00009b70    00000044                                : Timer.oem4f (.text:Timer_init)
                  00009bb4    00000044                                : UART.oem4f (.text:UART_init)
                  00009bf8    00000044     sysbios.aem4f : BIOS.obj (.text:ti_sysbios_family_arm_m3_Hwi_getStackInfo__E)
                  00009c3c    00000004     --HOLE-- [fill = 0]
                  00009c40    00000044                   : BIOS.obj (.text:ti_sysbios_knl_Swi_post__E)
                  00009c84    00000004     --HOLE-- [fill = 0]
                  00009c88    00000044                   : BIOS.obj (.text:xdc_runtime_System_atexit__E)
                  00009ccc    00000040     drivers_msp432p4x1xi.aem4f : ADCMSP432.oem4f (.text:ADCMSP432_close)
                  00009d0c    00000040                                : ADC.oem4f (.text:ADC_open)
                  00009d4c    00000040     dpl_msp432p4x1xi.aem4f : HwiP_tirtos.oem4f (.text:HwiP_create)
                  00009d8c    00000040     msp432p4xx_driverlib.lib : lcd_f.o (.text:LCD_F_setPinAsLCDFunction)
                  00009dcc    00000040     drivers_msp432p4x1xi.aem4f : PWM.oem4f (.text:PWM_open)
                  00009e0c    00000040                                : RingBuf.oem4f (.text:RingBuf_get)
                  00009e4c    00000040                                : Timer.oem4f (.text:Timer_open)
                  00009e8c    00000040                                : UARTMSP432.oem4f (.text:UARTMSP432_read)
                  00009ecc    00000040                                : UART.oem4f (.text:UART_open)
                  00009f0c    00000040                                : PWMTimerMSP432.oem4f (.text:getDutyCounts)
                  00009f4c    00000040                                : PWMTimerMSP432.oem4f (.text:getPeriodCounts)
                  00009f8c    00000004     --HOLE-- [fill = 0]
                  00009f90    00000040     sysbios.aem4f : BIOS.obj (.text:mq_receive)
                  00009fd0    00000040     drivers_msp432p4x1xi.aem4f : UARTMSP432.oem4f (.text:perfChangeNotifyFxn)
                  0000a010    00000040     rtsv7M4_T_le_v4SPD16_eabi.lib : sprintf.c.obj (.text:sprintf)
                  0000a050    00000040     sysbios.aem4f : BIOS.obj (.text:ti_sysbios_family_arm_msp432_Timer_Module_startup__E)
                  0000a090    00000040                   : BIOS.obj (.text:ti_sysbios_family_arm_msp432_Timer_startup__E)
                  0000a0d0    00000040                   : BIOS.obj (.text:ti_sysbios_heaps_HeapMem_Instance_init__E)
                  0000a110    00000040                   : BIOS.obj (.text:ti_sysbios_knl_Clock_Instance_init__E)
                  0000a150    0000003e     rtsv7M4_T_le_v4SPD16_eabi.lib : _printfi.c.obj (.text:_fcpy)
                  0000a18e    0000003e     release_pem4f.oem4f (.text:realloc)
                  0000a1cc    0000003c     dpl_msp432p4x1xi.aem4f : SemaphoreP_tirtos.oem4f (.text:SemaphoreP_create)
                  0000a208    0000003c     sysbios.aem4f : BIOS.obj (.text:ti_sysbios_family_arm_m3_Hwi_Instance_finalize__E)
                  0000a244    00000004     --HOLE-- [fill = 0]
                  0000a248    0000003c                   : BIOS.obj (.text:ti_sysbios_family_arm_msp432_Seconds_Module_startup__E)
                  0000a284    0000003c     release_pem4f.oem4f (.text:ti_sysbios_knl_Clock_create)
                  0000a2c0    0000003c     sysbios.aem4f : BIOS.obj (.text:ti_sysbios_knl_Swi_restore__E)
                  0000a2fc    00000004     --HOLE-- [fill = 0]
                  0000a300    0000003c                   : BIOS.obj (.text:usleep)
                  0000a33c    00000004     --HOLE-- [fill = 0]
                  0000a340    0000003c                   : BIOS.obj (.text:xdc_runtime_System_processAtExit__E)
                  0000a37c    0000003a     cJSON.obj (.text:cJSON_GetObjectItemCaseSensitive)
                  0000a3b6    00000038     lcd_hal.obj (.text:LCD_clear)
                  0000a3ee    00000002     --HOLE-- [fill = 0]
                  0000a3f0    00000038     drivers_msp432p4x1xi.aem4f : PowerMSP432.oem4f (.text:Power_setConstraint)
                  0000a428    00000038                                : TimerMSP432.oem4f (.text:TimerMSP432_getCount)
                  0000a460    00000038                                : PowerMSP432.oem4f (.text:notify)
                  0000a498    00000038     rtsv7M4_T_le_v4SPD16_eabi.lib : fs_tod_t2.asm.obj (.text)
                  0000a4d0    00000036     drivers_msp432p4x1xi.aem4f : UARTMSP432.oem4f (.text:UARTMSP432_readCancel)
                  0000a506    00000002     --HOLE-- [fill = 0]
                  0000a508    00000034                                : GPIOMSP432.oem4f (.text:GPIO_clearInt)
                  0000a53c    00000034                                : GPIOMSP432.oem4f (.text:GPIO_enableInt)
                  0000a570    00000034     cJSON.obj (.text:cJSON_GetArrayItem)
                  0000a5a4    00000034     rtsv7M4_T_le_v4SPD16_eabi.lib : rand.c.obj (.text:rand)
                  0000a5d8    00000034     release_pem4f.oem4f (.text:ti_sysbios_knl_Semaphore_create)
                  0000a60c    00000004     --HOLE-- [fill = 0]
                  0000a610    00000032     sysbios.aem4f : BIOS.obj (.text:ti_sysbios_hal_Hwi_initStack)
                  0000a642    00000002     --HOLE-- [fill = 0]
                  0000a644    00000030     drivers_msp432p4x1xi.aem4f : ADCMSP432.oem4f (.text:ADCMSP432_init)
                  0000a674    00000004     --HOLE-- [fill = 0]
                  0000a678    00000030     sysbios.aem4f : BIOS.obj (.text:findInList$42)
                  0000a6a8    00000030     drivers_msp432p4x1xi.aem4f : PWMTimerMSP432.oem4f (.text:mapPin)
                  0000a6d8    00000030                                : UARTMSP432.oem4f (.text:mapPin)
                  0000a708    00000030     release_pem4f.oem4f (.text:ti_sysbios_BIOS_atExitFunc__I)
                  0000a738    00000030     release_pem4f.oem4f (.text:ti_sysbios_BIOS_startFunc__I)
                  0000a768    00000030     sysbios.aem4f : BIOS.obj (.text:ti_sysbios_family_arm_m3_TaskSupport_start__E)
                  0000a798    00000030     release_pem4f.oem4f (.text:ti_sysbios_gates_GateHwi_Object__create__S)
                  0000a7c8    00000030     release_pem4f.oem4f (.text:ti_sysbios_gates_GateMutex_Object__create__S)
                  0000a7f8    00000030     sysbios.aem4f : BIOS.obj (.text:ti_sysbios_gates_GateMutex_enter__E)
                  0000a828    00000030     release_pem4f.oem4f (.text:ti_sysbios_heaps_HeapMem_Object__create__S)
                  0000a858    00000030     sysbios.aem4f : BIOS.obj (.text:ti_sysbios_knl_Mailbox_postInit__I)
                  0000a888    00000030     release_pem4f.oem4f (.text:ti_sysbios_knl_Semaphore_construct)
                  0000a8b8    00000030     sysbios.aem4f : BIOS.obj (.text:ti_sysbios_knl_Semaphore_pendTimeout__I)
                  0000a8e8    00000030                   : BIOS.obj (.text:ti_sysbios_knl_Task_processVitalTaskFlag__I)
                  0000a918    00000030                   : BIOS.obj (.text:ti_sysbios_knl_Task_restore__E)
                  0000a948    00000030                   : BIOS.obj (.text:ti_sysbios_knl_Task_unblockI__E)
                  0000a978    0000002e     rtsv7M4_T_le_v4SPD16_eabi.lib : i_tofd_t2.asm.obj (.text)
                  0000a9a6    0000002e     release_pem4f.oem4f (.text:ti_sysbios_rts_MemAlloc_alloc)
                  0000a9d4    0000002c     msp432p4xx_driverlib.lib : adc14.o (.text:ADC14_getInterruptStatus)
                  0000aa00    0000002c                              : adc14.o (.text:ADC14_toggleConversionTrigger)
                  0000aa2c    0000002c                              : lcd_f.o (.text:LCD_F_setAnimationControl)
                  0000aa58    0000002c     dpl_msp432p4x1xi.aem4f : PowerMSP432_tirtos.oem4f (.text:PowerMSP432_updateFreqs)
                  0000aa84    0000002c     msp432p4xx_driverlib.lib : rtc_c.o (.text:RTC_C_holdClock)
                  0000aab0    0000002c     dpl_msp432p4x1xi.aem4f : SemaphoreP_tirtos.oem4f (.text:SemaphoreP_createBinary)
                  0000aadc    00000004     --HOLE-- [fill = 0]
                  0000aae0    0000002c     sysbios.aem4f : BIOS.obj (.text:_pthread_cleanupFxn)
                  0000ab0c    00000004     --HOLE-- [fill = 0]
                  0000ab10    0000002c                   : BIOS.obj (.text:_pthread_delete$43)
                  0000ab3c    0000002c     cJSON.obj (.text:cJSON_GetArraySize)
                  0000ab68    0000002c     drivers_msp432p4x1xi.aem4f : TimerMSP432.oem4f (.text:perfChangeNotifyFxn)
                  0000ab94    0000002c     rtsv7M4_T_le_v4SPD16_eabi.lib : strncmp.c.obj (.text:strncmp)
                  0000abc0    0000002c     release_pem4f.oem4f (.text:ti_sysbios_gates_GateHwi_Handle__label__S)
                  0000abec    0000002c     release_pem4f.oem4f (.text:ti_sysbios_gates_GateMutex_Handle__label__S)
                  0000ac18    0000002c     release_pem4f.oem4f (.text:ti_sysbios_heaps_HeapMem_Handle__label__S)
                  0000ac44    0000002c     release_pem4f.oem4f (.text:ti_sysbios_knl_Queue_construct)
                  0000ac70    0000002a     sysbios.aem4f : BIOS.obj (.text:sem_init)
                  0000ac9a    00000002     --HOLE-- [fill = 0]
                  0000ac9c    00000028     msp432p4xx_driverlib.lib : adc14.o (.text:ADC14_enableConversion)
                  0000acc4    00000028                              : adc14.o (.text:ADC14_getResult)
                  0000acec    00000028                              : pcm.o (.text:PCM_gotoLPM0)
                  0000ad14    00000028     drivers_msp432p4x1xi.aem4f : PowerMSP432.oem4f (.text:Power_registerNotify)
                  0000ad3c    00000028                                : PowerMSP432.oem4f (.text:disableFaultCounter)
                  0000ad64    00000028                                : PowerMSP432.oem4f (.text:disableHFXT)
                  0000ad8c    00000028                                : UARTMSP432.oem4f (.text:findBaudDividerIndex)
                  0000adb4    00000028     callbacks.obj (.text:intervalTimer_Callback)
                  0000addc    00000028     sysbios.aem4f : m3_Hwi_asm.obj (.text:ti_sysbios_family_arm_m3_Hwi_excHandlerAsm__I)
                  0000ae04    00000004     --HOLE-- [fill = 0]
                  0000ae08    00000028                   : BIOS.obj (.text:ti_sysbios_knl_Clock_addI__E)
                  0000ae30    00000028                   : BIOS.obj (.text:ti_sysbios_knl_Swi_Module_startup__E)
                  0000ae58    00000026     drivers_msp432p4x1xi.aem4f : List.oem4f (.text:List_put)
                  0000ae7e    00000026                                : List.oem4f (.text:List_remove)
                  0000aea4    00000026                                : PWMTimerMSP432.oem4f (.text:releaseConstraints)
                  0000aeca    00000026     cJSON.obj (.text:skip_whitespace)
                  0000aef0    00000026     sysbios.aem4f : m3_Hwi_asm.obj (.text:ti_sysbios_family_arm_m3_Hwi_pendSV__I)
                  0000af16    00000002     --HOLE-- [fill = 0]
                  0000af18    00000024     msp432p4xx_driverlib.lib : wdt_a.o (.text:WDT_A_holdTimer)
                  0000af3c    00000024     cJSON.obj (.text:cJSON_IsArray)
                  0000af60    00000024     sysbios.aem4f : BIOS.obj (.text:pthread_attr_init)
                  0000af84    00000024     rtsv7M4_T_le_v4SPD16_eabi.lib : rand.c.obj (.text:srand)
                  0000afa8    00000024     release_pem4f.oem4f (.text:ti_sysbios_BIOS_registerRTSLock__I)
                  0000afcc    00000024     release_pem4f.oem4f (.text:ti_sysbios_BIOS_removeRTSLock__I)
                  0000aff0    00000024     sysbios.aem4f : BIOS.obj (.text:ti_sysbios_family_arm_msp432_ClockFreqs_setFrequency__E)
                  0000b014    00000024     release_pem4f.oem4f (.text:ti_sysbios_gates_GateMutex_Object__delete__S)
                  0000b038    00000024     sysbios.aem4f : BIOS.obj (.text:ti_sysbios_knl_Clock_Module_startup__E)
                  0000b05c    00000024     release_pem4f.oem4f (.text:ti_sysbios_knl_Clock_Object__delete__S)
                  0000b080    00000024     sysbios.aem4f : BIOS.obj (.text:ti_sysbios_knl_Semaphore_Instance_init__E)
                  0000b0a4    00000024     release_pem4f.oem4f (.text:ti_sysbios_knl_Semaphore_Object__delete__S)
                  0000b0c8    00000024     sysbios.aem4f : BIOS.obj (.text:ti_sysbios_knl_Task_restoreHwi__E)
                  0000b0ec    00000004     --HOLE-- [fill = 0]
                  0000b0f0    00000024                   : BIOS.obj (.text:xdc_runtime_Error_policyMin__E)
                  0000b114    00000004     --HOLE-- [fill = 0]
                  0000b118    00000024                   : BIOS.obj (.text:xdc_runtime_System_abort__E)
                  0000b13c    00000022     cJSON.obj (.text:cJSON_New_Item)
                  0000b15e    00000002     --HOLE-- [fill = 0]
                  0000b160    00000020     msp432p4xx_driverlib.lib : cs.o (.text:CS_setExternalClockSourceFrequency)
                  0000b180    00000020     drivers_msp432p4x1xi.aem4f : GPIOMSP432.oem4f (.text:GPIO_read)
                  0000b1a0    00000020                                : PowerMSP432.oem4f (.text:Power_unregisterNotify)
                  0000b1c0    00000020     msp432p4xx_driverlib.lib : ref_a.o (.text:REF_A_setReferenceVoltage)
                  0000b1e0    00000020     drivers_msp432p4x1xi.aem4f : RingBuf.oem4f (.text:RingBuf_peek)
                  0000b200    00000020     release_pem4f.oem4f (.text:ti_sysbios_BIOS_rtsLock__I)
                  0000b220    00000020     release_pem4f.oem4f (.text:ti_sysbios_family_arm_m3_Hwi_Object__delete__S)
                  0000b240    00000020     release_pem4f.oem4f (.text:ti_sysbios_gates_GateHwi_Object__delete__S)
                  0000b260    00000020     release_pem4f.oem4f (.text:ti_sysbios_heaps_HeapMem_Object__delete__S)
                  0000b280    00000020     sysbios.aem4f : BIOS.obj (.text:ti_sysbios_knl_Clock_getTicks__E)
                  0000b2a0    00000020                   : BIOS.obj (.text:ti_sysbios_knl_Idle_run__E)
                  0000b2c0    00000020     release_pem4f.oem4f (.text:ti_sysbios_knl_Semaphore_destruct)
                  0000b2e0    00000020     release_pem4f.oem4f (.text:ti_sysbios_knl_Task_Object__delete__S)
                  0000b300    0000001e     drivers_msp432p4x1xi.aem4f : PWMTimerMSP432.oem4f (.text:corroboratePeriod)
                  0000b31e    0000001e     sysbios.aem4f : m3_Hwi_asm_switch.obj (.text:ti_sysbios_family_xxx_Hwi_switchAndRunFunc)
                  0000b33c    0000001c     msp432p4xx_driverlib.lib : sysctl_a.o (.text:SysCtl_A_getTempCalibrationConstant)
                  0000b358    0000001c     rtsv7M4_T_le_v4SPD16_eabi.lib : memccpy.c.obj (.text:memccpy)
                  0000b374    00000004     --HOLE-- [fill = 0]
                  0000b378    0000001c     sysbios.aem4f : BIOS.obj (.text:ti_sysbios_family_arm_m3_Hwi_excHandler__I)
                  0000b394    00000004     --HOLE-- [fill = 0]
                  0000b398    0000001c                   : BIOS.obj (.text:ti_sysbios_gates_GateMutex_Instance_init__E)
                  0000b3b4    00000004     --HOLE-- [fill = 0]
                  0000b3b8    0000001c                   : BIOS.obj (.text:ti_sysbios_knl_Clock_Instance_finalize__E)
                  0000b3d4    00000004     --HOLE-- [fill = 0]
                  0000b3d8    0000001c                   : BIOS.obj (.text:ti_sysbios_knl_Clock_scheduleNextTick__E)
                  0000b3f4    0000001c     release_pem4f.oem4f (.text:ti_sysbios_knl_Queue_destruct)
                  0000b410    0000001c     sysbios.aem4f : BIOS.obj (.text:ti_sysbios_knl_Queue_get__E)
                  0000b42c    00000004     --HOLE-- [fill = 0]
                  0000b430    0000001c                   : BIOS.obj (.text:ti_sysbios_knl_Queue_put__E)
                  0000b44c    00000004     --HOLE-- [fill = 0]
                  0000b450    0000001c                   : BIOS.obj (.text:ti_sysbios_knl_Task_enter__I)
                  0000b46c    00000004     --HOLE-- [fill = 0]
                  0000b470    0000001c                   : BIOS.obj (.text:ti_sysbios_rts_ti_ReentSupport_getReent__F)
                  0000b48c    00000004     --HOLE-- [fill = 0]
                  0000b490    0000001c                   : BIOS.obj (.text:xdc_runtime_Memory_valloc__E)
                  0000b4ac    0000001a     rtsv7M4_T_le_v4SPD16_eabi.lib : s_copysign.c.obj (.text:copysign)
                  0000b4c6    0000001a     release_pem4f.oem4f (.text:free)
                  0000b4e0    00000018     msp432p4xx_driverlib.lib : sysctl_a.o (.text:SysCtl_A_disableNMISource)
                  0000b4f8    00000018                              : sysctl_a.o (.text:SysCtl_A_enableNMISource)
                  0000b510    00000018     drivers_msp432p4x1xi.aem4f : UART.oem4f (.text:UART_Params_init)
                  0000b528    00000018     rtsv7M4_T_le_v4SPD16_eabi.lib : args_main.c.obj (.text:_args_main)
                  0000b540    00000018                                   : sprintf.c.obj (.text:_outs)
                  0000b558    00000018     drivers_msp432p4x1xi.aem4f : PWMTimerMSP432.oem4f (.text:corroborateDuty)
                  0000b570    00000018     rtsv7M4_T_le_v4SPD16_eabi.lib : strcmp.c.obj (.text:strcmp)
                  0000b588    00000018     release_pem4f.oem4f (.text:ti_sysbios_BIOS_rtsUnlock__I)
                  0000b5a0    00000018     release_pem4f.oem4f (.text:ti_sysbios_family_arm_m3_Hwi_Module__startupDone__F)
                  0000b5b8    00000018     sysbios.aem4f : m3_TaskSupport_asm.obj (.text:ti_sysbios_family_arm_m3_TaskSupport_swap__E)
                  0000b5d0    00000018     release_pem4f.oem4f (.text:ti_sysbios_family_arm_msp432_Timer_Module__startupDone__F)
                  0000b5e8    00000018     sysbios.aem4f : BIOS.obj (.text:ti_sysbios_gates_GateMutex_leave__E)
                  0000b600    00000018                   : BIOS.obj (.text:ti_sysbios_knl_Task_sleepTimeout__I)
                  0000b618    00000018     release_pem4f.oem4f (.text:ti_sysbios_rts_ti_ReentSupport_getTlsAddr__I)
                  0000b630    00000018     sysbios.aem4f : BIOS.obj (.text:xdc_runtime_Error_init__E)
                  0000b648    00000018                   : BIOS.obj (.text:xdc_runtime_System_exit__E)
                  0000b660    00000016     rtsv7M4_T_le_v4SPD16_eabi.lib : strchr.c.obj (.text:strchr)
                  0000b676    00000016     release_pem4f.oem4f (.text:ti_sysbios_BIOS_exitFunc__I)
                  0000b68c    00000004     --HOLE-- [fill = 0]
                  0000b690    00000016     sysbios.aem4f : BIOS.obj (.text:ti_sysbios_knl_Clock_start__E)
                  0000b6a6    00000002     --HOLE-- [fill = 0]
                  0000b6a8    00000016                   : BIOS.obj (.text:ti_sysbios_knl_Task_unblock__E)
                  0000b6be    00000014     lcd_hal.obj (.text:LCD_startAnimation)
                  0000b6d2    00000002     --HOLE-- [fill = 0]
                  0000b6d4    00000014     msp432p4xx_driverlib.lib : pcm.o (.text:PCM_getPowerState)
                  0000b6e8    00000014     drivers_msp432p4x1xi.aem4f : PWM.oem4f (.text:PWM_Params_init)
                  0000b6fc    00000014                                : PowerMSP432.oem4f (.text:Power_idleFunc)
                  0000b710    00000014                                : UARTMSP432.oem4f (.text:clearTXCPTIFG)
                  0000b724    00000004     --HOLE-- [fill = 0]
                  0000b728    00000014     sysbios.aem4f : BIOS.obj (.text:pthread_attr_setschedparam)
                  0000b73c    00000014     rtsv7M4_T_le_v4SPD16_eabi.lib : strcpy.c.obj (.text:strcpy)
                  0000b750    00000014                                   : strlen.c.obj (.text:strlen)
                  0000b764    00000014     release_pem4f.oem4f (.text:ti_sysbios_family_arm_m3_Hwi_Object__get__S)
                  0000b778    00000014     sysbios.aem4f : BIOS.obj (.text:ti_sysbios_family_arm_m3_Hwi_switchFromBootStack__E)
                  0000b78c    00000014     release_pem4f.oem4f (.text:ti_sysbios_heaps_HeapMem_Object__get__S)
                  0000b7a0    00000014     release_pem4f.oem4f (.text:ti_sysbios_knl_Clock_doTick__I)
                  0000b7b4    00000014     release_pem4f.oem4f (.text:ti_sysbios_knl_Swi_Object__get__S)
                  0000b7c8    00000012     drivers_msp432p4x1xi.aem4f : RingBuf.oem4f (.text:RingBuf_construct)
                  0000b7da    00000012     dpl_msp432p4x1xi.aem4f : SemaphoreP_tirtos.oem4f (.text:SemaphoreP_pend)
                  0000b7ec    00000004     --HOLE-- [fill = 0]
                  0000b7f0    00000012     sysbios.aem4f : BIOS.obj (.text:_pthread_cleanup_pop)
                  0000b802    00000006     drivers_msp432p4x1xi.aem4f : PWMTimerMSP432.oem4f (.text:PWMTimerMSP432_control)
                  0000b808    00000012     sysbios.aem4f : BIOS.obj (.text:_pthread_runStub$43)
                  0000b81a    00000006     drivers_msp432p4x1xi.aem4f : PWMTimerMSP432.oem4f (.text:PWMTimerMSP432_setDutyAndPeriod)
                  0000b820    00000012     sysbios.aem4f : BIOS.obj (.text:ti_sysbios_hal_Hwi_Module_startup__E)
                  0000b832    00000012     rtsv7M4_T_le_v4SPD16_eabi.lib : wcslen.c.obj (.text:wcslen)
                  0000b844    00000012     release_pem4f.oem4f (.text:xdc_runtime_Startup_exec__I)
                  0000b856    00000002     --HOLE-- [fill = 0]
                  0000b858    00000010     msp432p4xx_driverlib.lib : adc14.o (.text:ADCIsConversionRunning)
                  0000b868    00000010     dpl_msp432p4x1xi.aem4f : HwiP_tirtos.oem4f (.text:HwiP_Params_init)
                  0000b878    00000010     msp432p4xx_driverlib.lib : pcm.o (.text:PCM_gotoLPM4)
                  0000b888    00000010                              : pcm.o (.text:PCM_setPowerMode)
                  0000b898    00000010                              : pcm.o (.text:PCM_setPowerState)
                  0000b8a8    00000010     drivers_msp432p4x1xi.aem4f : PowerMSP432.oem4f (.text:PowerMSP432_getNumPerfLevels)
                  0000b8b8    00000010     msp432p4xx_driverlib.lib : sysctl_a.o (.text:SysCtl_A_getNMISourceStatus)
                  0000b8c8    00000010     drivers_msp432p4x1xi.aem4f : Timer.oem4f (.text:Timer_Params_init)
                  0000b8d8    00000010     cJSON.obj (.text:cJSON_Parse)
                  0000b8e8    00000010     drivers_msp432p4x1xi.aem4f : UARTMSP432.oem4f (.text:readBlockingTimeout)
                  0000b8f8    00000010     sysbios.aem4f : BIOS.obj (.text:ti_sysbios_BIOS_exit__E)
                  0000b908    00000010                   : BIOS.obj (.text:ti_sysbios_BIOS_setCpuFreq__E)
                  0000b918    00000010                   : BIOS.obj (.text:ti_sysbios_BIOS_setThreadType__E)
                  0000b928    00000010                   : BIOS.obj (.text:ti_sysbios_BIOS_start__E)
                  0000b938    00000010                   : m3_TaskSupport_asm.obj (.text:ti_sysbios_family_arm_m3_TaskSupport_glue)
                  0000b948    00000010                   : BIOS.obj (.text:ti_sysbios_family_arm_msp432_init_Boot_disableWatchdog)
                  0000b958    00000010                   : BIOS.obj (.text:ti_sysbios_gates_GateMutex_Instance_finalize__E)
                  0000b968    00000010     release_pem4f.oem4f (.text:ti_sysbios_knl_Mailbox_Object__get__S)
                  0000b978    00000010     sysbios.aem4f : BIOS.obj (.text:ti_sysbios_knl_Semaphore_Instance_finalize__E)
                  0000b988    00000010                   : BIOS.obj (.text:ti_sysbios_knl_Swi_disable__E)
                  0000b998    00000010     release_pem4f.oem4f (.text:ti_sysbios_knl_Task_Object__get__S)
                  0000b9a8    00000010     sysbios.aem4f : BIOS.obj (.text:ti_sysbios_knl_Task_disable__E)
                  0000b9b8    00000010                   : BIOS.obj (.text:xdc_runtime_Gate_leaveSystem__E)
                  0000b9c8    00000010                   : BIOS.obj (.text:xdc_runtime_Memory_free__E)
                  0000b9d8    00000010                   : BIOS.obj (.text:xdc_runtime_SysCallback_abort__E)
                  0000b9e8    00000010                   : BIOS.obj (.text:xdc_runtime_SysCallback_exit__E)
                  0000b9f8    0000000e     rtsv7M4_T_le_v4SPD16_eabi.lib : copy_decompress_none.c.obj (.text:decompress:none:__TI_decompress_none)
                  0000ba06    00000002     --HOLE-- [fill = 0]
                  0000ba08    0000000e     sysbios.aem4f : BIOS.obj (.text:pthread_attr_setdetachstate)
                  0000ba16    00000002     --HOLE-- [fill = 0]
                  0000ba18    0000000e                   : BIOS.obj (.text:sem_wait)
                  0000ba26    00000002     --HOLE-- [fill = 0]
                  0000ba28    0000000e                   : BIOS.obj (.text:ti_sysbios_knl_Idle_loop__E)
                  0000ba36    0000000c     ti_drivers_config.obj (.text:Board_init)
                  0000ba42    0000000c     msp432p4xx_driverlib.lib : cpu.o (.text:CPU_cpsid)
                  0000ba4e    0000000c                              : cpu.o (.text:CPU_cpsie)
                  0000ba5a    0000000c     dpl_msp432p4x1xi.aem4f : ClockP_tirtos.oem4f (.text:ClockP_delete)
                  0000ba66    0000000c                            : HwiP_tirtos.oem4f (.text:HwiP_delete)
                  0000ba72    00000002     --HOLE-- [fill = 0]
                  0000ba74    0000000c     msp432p4xx_driverlib.lib : lcd_f.o (.text:LCD_F_clearAllAnimationMemory)
                  0000ba80    0000000c                              : lcd_f.o (.text:LCD_F_clearAllBlinkingMemory)
                  0000ba8c    0000000c                              : lcd_f.o (.text:LCD_F_clearAllMemory)
                  0000ba98    0000000c                              : lcd_f.o (.text:LCD_F_disableAnimation)
                  0000baa4    0000000c                              : lcd_f.o (.text:LCD_F_enableAnimation)
                  0000bab0    0000000c                              : lcd_f.o (.text:LCD_F_turnOff)
                  0000babc    0000000c                              : lcd_f.o (.text:LCD_F_turnOn)
                  0000bac8    0000000c     drivers_msp432p4x1xi.aem4f : PowerMSP432.oem4f (.text:Power_getConstraintMask)
                  0000bad4    0000000c                                : PowerMSP432.oem4f (.text:Power_getPerformanceLevel)
                  0000bae0    0000000c     msp432p4xx_driverlib.lib : ref_a.o (.text:REF_A_enableReferenceVoltage)
                  0000baec    0000000c                              : ref_a.o (.text:REF_A_enableTempSensor)
                  0000baf8    0000000c     dpl_msp432p4x1xi.aem4f : SemaphoreP_tirtos.oem4f (.text:SemaphoreP_delete)
                  0000bb04    0000000c     rtsv7M4_T_le_v4SPD16_eabi.lib : _lock.c.obj (.text:_register_lock)
                  0000bb10    0000000c                                   : _lock.c.obj (.text:_register_unlock)
                  0000bb1c    0000000c                                   : copy_zero_init.c.obj (.text:decompress:ZI:__TI_zero_init)
                  0000bb28    0000000c     release_pem4f.oem4f (.text:ti_sysbios_family_arm_m3_Hwi_Params__init__S)
                  0000bb34    00000004     --HOLE-- [fill = 0]
                  0000bb38    0000000c     sysbios.aem4f : BIOS.obj (.text:ti_sysbios_family_arm_m3_Hwi_disableFxn__E)
                  0000bb44    00000004     --HOLE-- [fill = 0]
                  0000bb48    0000000c                   : BIOS.obj (.text:ti_sysbios_family_arm_m3_TaskSupport_getStackAlignment__E)
                  0000bb54    00000004     --HOLE-- [fill = 0]
                  0000bb58    0000000c                   : BIOS.obj (.text:ti_sysbios_family_arm_msp432_Timer_getMaxTicks__E)
                  0000bb64    00000004     --HOLE-- [fill = 0]
                  0000bb68    0000000c                   : BIOS.obj (.text:ti_sysbios_gates_GateHwi_enter__E)
                  0000bb74    0000000c     release_pem4f.oem4f (.text:ti_sysbios_knl_Clock_Params__init__S)
                  0000bb80    0000000c     release_pem4f.oem4f (.text:ti_sysbios_knl_Queue_Object__get__S)
                  0000bb8c    0000000c     release_pem4f.oem4f (.text:ti_sysbios_knl_Semaphore_Params__init__S)
                  0000bb98    0000000c     release_pem4f.oem4f (.text:ti_sysbios_knl_Task_Params__init__S)
                  0000bba4    00000004     --HOLE-- [fill = 0]
                  0000bba8    0000000c     sysbios.aem4f : BIOS.obj (.text:ti_sysbios_knl_Task_self__E)
                  0000bbb4    00000004     --HOLE-- [fill = 0]
                  0000bbb8    0000000c                   : BIOS.obj (.text:ti_sysbios_rts_ti_ReentSupport_taskRegHook__I)
                  0000bbc4    00000004     --HOLE-- [fill = 0]
                  0000bbc8    0000000c                   : BIOS.obj (.text:xdc_runtime_Gate_enterSystem__E)
                  0000bbd4    00000004     --HOLE-- [fill = 0]
                  0000bbd8    0000000c                   : BIOS.obj (.text:xdc_runtime_Startup_rtsDone__E)
                  0000bbe4    0000000a     drivers_msp432p4x1xi.aem4f : ADC.oem4f (.text:ADC_Params_init)
                  0000bbee    0000000a                                : ADC.oem4f (.text:ADC_convert)
                  0000bbf8    0000000a     dpl_msp432p4x1xi.aem4f : ClockP_tirtos.oem4f (.text:ClockP_Params_init)
                  0000bc02    0000000a     drivers_msp432p4x1xi.aem4f : PWM.oem4f (.text:PWM_setDuty)
                  0000bc0c    0000000a                                : PWM.oem4f (.text:PWM_start)
                  0000bc16    0000000a                                : PWM.oem4f (.text:PWM_stop)
                  0000bc20    0000000a                                : Timer.oem4f (.text:Timer_close)
                  0000bc2a    0000000a                                : Timer.oem4f (.text:Timer_getCount)
                  0000bc34    0000000a                                : Timer.oem4f (.text:Timer_start)
                  0000bc3e    0000000a                                : Timer.oem4f (.text:Timer_stop)
                  0000bc48    0000000a                                : UART.oem4f (.text:UART_read)
                  0000bc52    0000000a     rtsv7M4_T_le_v4SPD16_eabi.lib : sprintf.c.obj (.text:_outc)
                  0000bc5c    00000004     --HOLE-- [fill = 0]
                  0000bc60    0000000a     sysbios.aem4f : BIOS.obj (.text:sem_post)
                  0000bc6a    0000000a     release_pem4f.oem4f (.text:xdc_runtime_IHeap_alloc)
                  0000bc74    0000000a     release_pem4f.oem4f (.text:xdc_runtime_IHeap_free)
                  0000bc7e    00000008     lcd_hal.obj (.text:LCD_stopAnimation)
                  0000bc86    00000008     dpl_msp432p4x1xi.aem4f : SemaphoreP_tirtos.oem4f (.text:SemaphoreP_Params_init)
                  0000bc8e    00000002     --HOLE-- [fill = 0]
                  0000bc90    00000008     sysbios.aem4f : BIOS.obj (.text:pthread_attr_setstacksize)
                  0000bc98    00000008     drivers_msp432p4x1xi.aem4f : UARTMSP432.oem4f (.text:readSemCallback)
                  0000bca0    00000008     sysbios.aem4f : BIOS.obj (.text:ti_sysbios_family_arm_m3_Hwi_doSwiRestore__I)
                  0000bca8    00000008                   : BIOS.obj (.text:ti_sysbios_family_arm_m3_Hwi_startup__E)
                  0000bcb0    00000008     drivers_msp432p4x1xi.aem4f : UARTMSP432.oem4f (.text:txcptEnabledStatus)
                  0000bcb8    00000008                                : UARTMSP432.oem4f (.text:writeSemCallback)
                  0000bcc0    00000006                                : TimerMSP432.oem4f (.text:TimerMSP432_control)
                  0000bcc6    00000002     --HOLE-- [fill = 0]
                  0000bcc8    00000006     sysbios.aem4f : BIOS.obj (.text:ti_sysbios_family_arm_m3_Hwi_doTaskRestore__I)
                  0000bcce    00000002     --HOLE-- [fill = 0]
                  0000bcd0    00000006                   : BIOS.obj (.text:ti_sysbios_family_arm_m3_Hwi_restoreFxn__E)
                  0000bcd6    00000002     --HOLE-- [fill = 0]
                  0000bcd8    00000006                   : BIOS.obj (.text:ti_sysbios_gates_GateHwi_leave__E)
                  0000bcde    00000002     --HOLE-- [fill = 0]
                  0000bce0    00000006                   : BIOS.obj (.text:ti_sysbios_heaps_HeapMem_isBlocking__E)
                  0000bce6    00000002     --HOLE-- [fill = 0]
                  0000bce8    00000006                   : BIOS.obj (.text:ti_sysbios_knl_Clock_stop__E)
                  0000bcee    00000002     --HOLE-- [fill = 0]
                  0000bcf0    00000006                   : BIOS.obj (.text:ti_sysbios_knl_Queue_Instance_init__E)
                  0000bcf6    00000002     --HOLE-- [fill = 0]
                  0000bcf8    00000006                   : BIOS.obj (.text:ti_sysbios_knl_Swi_startup__E)
                  0000bcfe    00000002     --HOLE-- [fill = 0]
                  0000bd00    00000006                   : BIOS.obj (.text:xdc_runtime_System_Module_startup__E)
                  0000bd06    00000002     --HOLE-- [fill = 0]
                  0000bd08    00000004                   : BIOS.obj (.text:__aeabi_errno_addr)
                  0000bd0c    00000004     --HOLE-- [fill = 0]
                  0000bd10    00000004                   : BIOS.obj (.text:ti_sysbios_gates_GateHwi_query__E)
                  0000bd14    00000004     --HOLE-- [fill = 0]
                  0000bd18    00000004                   : BIOS.obj (.text:ti_sysbios_gates_GateMutex_query__E)
                  0000bd1c    00000004     --HOLE-- [fill = 0]
                  0000bd20    00000004                   : BIOS.obj (.text:ti_sysbios_knl_Clock_setTimeout__E)
                  0000bd24    00000004     --HOLE-- [fill = 0]
                  0000bd28    00000004                   : BIOS.obj (.text:ti_sysbios_knl_Task_startup__E)
                  0000bd2c    00000004     --HOLE-- [fill = 0]
                  0000bd30    00000002                   : BIOS.obj (.text:ti_sysbios_BIOS_linkedWithIncorrectBootLibrary__E)
                  0000bd32    00000006     --HOLE-- [fill = 0]
                  0000bd38    00000002                   : BIOS.obj (.text:ti_sysbios_gates_GateHwi_Instance_init__E)
                  0000bd3a    00000006     --HOLE-- [fill = 0]
                  0000bd40    00000002                   : BIOS.obj (.text:ti_sysbios_knl_Clock_logTick__E)
                  0000bd42    00000006     --HOLE-- [fill = 0]
                  0000bd48    00000002                   : BIOS.obj (.text:xdc_runtime_SysCallback_defaultAbort)
                  0000bd4a    00000006     --HOLE-- [fill = 0]
                  0000bd50    00000002                   : BIOS.obj (.text:xdc_runtime_SysCallback_defaultExit)
                  0000bd52    00000006     --HOLE-- [fill = 0]
                  0000bd58    00000002                   : BIOS.obj (.text:xdc_runtime_System_abortSpin__E)
                  0000bd5a    00000006     --HOLE-- [fill = 0]
                  0000bd60    00000002                   : BIOS.obj (.text:xdc_runtime_System_exitSpin__E)

.const     0    0000bd68    00000a90     
                  0000bd68    00000101     rtsv7M4_T_le_v4SPD16_eabi.lib : ctype.c.obj (.const:.string:_ctypes_)
                  0000be69    00000006     lcd_hal.obj (.const:.string:$P$T0$1)
                  0000be6f    00000001     release_pem4f.oem4f (.const:xdc_runtime_Error_policy__C)
                  0000be70    000000c8     rtsv7M4_T_le_v4SPD16_eabi.lib : strtod.c.obj (.const:$O1$$)
                  0000bf38    00000080     msp432p4xx_driverlib.lib : adc14.o (.const:_ctlRegs)
                  0000bfb8    00000068     lcd_hal.obj (.const:alphabetUppercase)
                  0000c020    00000050     drivers_msp432p4x1xi.aem4f : TimerMSP432.oem4f (.const:timerADividers)
                  0000c070    00000040     ti_drivers_config.obj (.const:uartMSP432Baudrates)
                  0000c0b0    0000003c     release_pem4f.oem4f (.const:ti_sysbios_knl_Task_Object__PARAMS__C)
                  0000c0ec    00000038     ti_drivers_config.obj (.const:PowerMSP432_config)
                  0000c124    00000034     release_pem4f.oem4f (.const:ti_sysbios_knl_Mailbox_Object__PARAMS__C)
                  0000c158    00000030     msp432p4xx_driverlib.lib : gpio.o (.const:GPIO_PORT_TO_BASE)
                  0000c188    00000030     ti_drivers_config.obj (.const:TimerMSP432HWAttrs)
                  0000c1b8    00000030     release_pem4f.oem4f (.const:ti_sysbios_family_arm_m3_Hwi_Object__PARAMS__C)
                  0000c1e8    0000002c     ti_drivers_config.obj (.const:uartMSP432HWAttrs)
                  0000c214    00000028     drivers_msp432p4x1xi.aem4f : UARTMSP432.oem4f (.const:UARTMSP432_fxnTable)
                  0000c23c    00000028     lcd_hal.obj (.const:digit)
                  0000c264    00000028     release_pem4f.oem4f (.const:ti_sysbios_heaps_HeapMem_Module__FXNS__C)
                  0000c28c    00000024     drivers_msp432p4x1xi.aem4f : PWMTimerMSP432.oem4f (.const:PWMTimerMSP432_fxnTable)
                  0000c2b0    00000024     ti_drivers_config.obj (.const:PWM_config)
                  0000c2d4    00000024     ti_drivers_config.obj (.const:Timer_config)
                  0000c2f8    00000024     drivers_msp432p4x1xi.aem4f : UART.oem4f (.const:UART_defaultParams)
                  0000c31c    00000024     release_pem4f.oem4f (.const:ti_sysbios_gates_GateHwi_Module__FXNS__C)
                  0000c340    00000024     release_pem4f.oem4f (.const:ti_sysbios_gates_GateMutex_Module__FXNS__C)
                  0000c364    00000024     release_pem4f.oem4f (.const:ti_sysbios_heaps_HeapMem_Object__PARAMS__C)
                  0000c388    00000024     release_pem4f.oem4f (.const:ti_sysbios_knl_Clock_Object__PARAMS__C)
                  0000c3ac    00000024     release_pem4f.oem4f (.const:ti_sysbios_knl_Semaphore_Object__PARAMS__C)
                  0000c3d0    00000024     release_pem4f.oem4f (.const:xdc_runtime_Startup_sfxnTab__A)
                  0000c3f4    00000020     drivers_msp432p4x1xi.aem4f : TimerMSP432.oem4f (.const:TimerMSP432_Timer32_fxnTable)
                  0000c414    00000020                                : TimerMSP432.oem4f (.const:TimerMSP432_Timer_A_fxnTable)
                  0000c434    00000020                                : UARTMSP432.oem4f (.const:staticFxnTable)
                  0000c454    00000020     release_pem4f.oem4f (.const:ti_sysbios_family_arm_m3_Hwi_Object__DESC__C)
                  0000c474    00000020     release_pem4f.oem4f (.const:ti_sysbios_gates_GateHwi_Object__DESC__C)
                  0000c494    00000020     release_pem4f.oem4f (.const:ti_sysbios_gates_GateMutex_Object__DESC__C)
                  0000c4b4    00000020     release_pem4f.oem4f (.const:ti_sysbios_heaps_HeapMem_Object__DESC__C)
                  0000c4d4    00000020     release_pem4f.oem4f (.const:ti_sysbios_knl_Clock_Object__DESC__C)
                  0000c4f4    00000020     release_pem4f.oem4f (.const:ti_sysbios_knl_Mailbox_Object__DESC__C)
                  0000c514    00000020     release_pem4f.oem4f (.const:ti_sysbios_knl_Queue_Object__DESC__C)
                  0000c534    00000020     release_pem4f.oem4f (.const:ti_sysbios_knl_Semaphore_Object__DESC__C)
                  0000c554    00000020     release_pem4f.oem4f (.const:ti_sysbios_knl_Task_Object__DESC__C)
                  0000c574    00000018     drivers_msp432p4x1xi.aem4f : ADCMSP432.oem4f (.const:ADCMSP432_fxnTable)
                  0000c58c    00000018                                : PWM.oem4f (.const:PWM_defaultParams)
                  0000c5a4    00000018     lcd_hal.obj (.const:lcdConf)
                  0000c5bc    00000018     ti_drivers_config.obj (.const:pwmTimerMSP432HWAttrs)
                  0000c5d4    00000018     release_pem4f.oem4f (.const:ti_sysbios_gates_GateHwi_Object__PARAMS__C)
                  0000c5ec    00000018     release_pem4f.oem4f (.const:ti_sysbios_gates_GateMutex_Object__PARAMS__C)
                  0000c604    00000018     release_pem4f.oem4f (.const:ti_sysbios_knl_Queue_Object__PARAMS__C)
                  0000c61c    00000018     release_pem4f.oem4f (.const:ti_sysbios_knl_Task_hooks__A)
                  0000c634    00000014     ti_drivers_config.obj (.const:GPIOMSP432_config)
                  0000c648    00000012     release_pem4f.oem4f (.const:xdc_runtime_Startup_sfxnRts__A)
                  0000c65a    00000002     release_pem4f.oem4f (.const:ti_sysbios_family_arm_m3_Hwi_Module__id__C)
                  0000c65c    00000010     uart_thread.obj (.const:$P$T0$1)
                  0000c66c    00000010     ti_drivers_config.obj (.const:adcMSP432HWAttrs)
                  0000c67c    00000010     drivers_msp432p4x1xi.aem4f : PWMTimerMSP432.oem4f (.const:pwmTimerBaseAddr)
                  0000c68c    0000000c     ti_drivers_config.obj (.const:ADC_config)
                  0000c698    0000000c     ti_drivers_config.obj (.const:UART_config)
                  0000c6a4    0000000c     drivers_msp432p4x1xi.aem4f : Timer.oem4f (.const:defaultParams)
                  0000c6b0    0000000c                                : TimerMSP432.oem4f (.const:timer32Dividers)
                  0000c6bc    0000000c     release_pem4f.oem4f (.const:xdc_runtime_Startup_firstFxns__A)
                  0000c6c8    00000008     drivers_msp432p4x1xi.aem4f : ADC.oem4f (.const:ADC_defaultParams)
                  0000c6d0    00000008     release_pem4f.oem4f (.const)
                  0000c6d8    00000008     release_pem4f.oem4f (.const:ti_sysbios_knl_Idle_funcList__A)
                  0000c6e0    00000008     release_pem4f.oem4f (.const:ti_sysbios_knl_Idle_funcList__C)
                  0000c6e8    00000008     release_pem4f.oem4f (.const:ti_sysbios_knl_Task_hooks__C)
                  0000c6f0    00000008     release_pem4f.oem4f (.const:xdc_runtime_Startup_firstFxns__C)
                  0000c6f8    00000008     release_pem4f.oem4f (.const:xdc_runtime_Startup_lastFxns__C)
                  0000c700    00000006     drivers_msp432p4x1xi.aem4f : GPIOMSP432.oem4f (.const:.string:interruptType)
                  0000c706    00000006     lcd_hal.obj (.const:.string:lcdPositions)
                  0000c70c    00000006     drivers_msp432p4x1xi.aem4f : GPIOMSP432.oem4f (.const:.string:portInterruptIds)
                  0000c712    00000005                                : UARTMSP432.oem4f (.const:.string:parityTypes)
                  0000c717    00000001     --HOLE-- [fill = 0]
                  0000c718    00000004                                : UARTMSP432.oem4f (.const:stopBits)
                  0000c71c    00000004     ti_drivers_config.obj (.const)
                  0000c720    00000004     release_pem4f.oem4f (.const:ti_sysbios_family_arm_m3_Hwi_E_alreadyDefined__C)
                  0000c724    00000004     release_pem4f.oem4f (.const:ti_sysbios_family_arm_m3_Hwi_E_badIntNum__C)
                  0000c728    00000004     release_pem4f.oem4f (.const:ti_sysbios_family_arm_m3_Hwi_NUM_INTERRUPTS__C)
                  0000c72c    00000004     release_pem4f.oem4f (.const:ti_sysbios_family_arm_m3_Hwi_Object__count__C)
                  0000c730    00000004     release_pem4f.oem4f (.const:ti_sysbios_family_arm_m3_Hwi_ccr__C)
                  0000c734    00000004     release_pem4f.oem4f (.const:ti_sysbios_family_arm_m3_Hwi_excHandlerFunc__C)
                  0000c738    00000004     release_pem4f.oem4f (.const:ti_sysbios_family_arm_m3_Hwi_nullIsrFunc__C)
                  0000c73c    00000004     release_pem4f.oem4f (.const:ti_sysbios_family_arm_m3_Hwi_priGroup__C)
                  0000c740    00000004     release_pem4f.oem4f (.const:ti_sysbios_family_arm_m3_Hwi_swiDisable__C)
                  0000c744    00000004     release_pem4f.oem4f (.const:ti_sysbios_family_arm_m3_Hwi_swiRestore__C)
                  0000c748    00000004     release_pem4f.oem4f (.const:ti_sysbios_family_arm_m3_TaskSupport_stackAlignment__C)
                  0000c74c    00000004     release_pem4f.oem4f (.const:ti_sysbios_family_arm_msp432_Timer_numTimerDevices__C)
                  0000c750    00000004     release_pem4f.oem4f (.const:ti_sysbios_family_arm_msp432_Timer_startupNeeded__C)
                  0000c754    00000004     release_pem4f.oem4f (.const:ti_sysbios_gates_GateMutex_Instance_State_sem__O)
                  0000c758    00000004     release_pem4f.oem4f (.const:ti_sysbios_heaps_HeapMem_E_memory__C)
                  0000c75c    00000004     release_pem4f.oem4f (.const:ti_sysbios_heaps_HeapMem_Module__gateObj__C)
                  0000c760    00000004     release_pem4f.oem4f (.const:ti_sysbios_heaps_HeapMem_Object__count__C)
                  0000c764    00000004     release_pem4f.oem4f (.const:ti_sysbios_heaps_HeapMem_primaryHeapBaseAddr__C)
                  0000c768    00000004     release_pem4f.oem4f (.const:ti_sysbios_heaps_HeapMem_primaryHeapEndAddr__C)
                  0000c76c    00000004     release_pem4f.oem4f (.const:ti_sysbios_heaps_HeapMem_reqAlign__C)
                  0000c770    00000004     release_pem4f.oem4f (.const:ti_sysbios_knl_Clock_Module_State_clockQ__O)
                  0000c774    00000004     release_pem4f.oem4f (.const:ti_sysbios_knl_Clock_tickPeriod__C)
                  0000c778    00000004     release_pem4f.oem4f (.const:ti_sysbios_knl_Mailbox_Instance_State_dataQue__O)
                  0000c77c    00000004     release_pem4f.oem4f (.const:ti_sysbios_knl_Mailbox_Instance_State_dataSem__O)
                  0000c780    00000004     release_pem4f.oem4f (.const:ti_sysbios_knl_Mailbox_Instance_State_freeQue__O)
                  0000c784    00000004     release_pem4f.oem4f (.const:ti_sysbios_knl_Mailbox_Instance_State_freeSem__O)
                  0000c788    00000004     release_pem4f.oem4f (.const:ti_sysbios_knl_Mailbox_Object__count__C)
                  0000c78c    00000004     release_pem4f.oem4f (.const:ti_sysbios_knl_Mailbox_maxTypeAlign__C)
                  0000c790    00000004     release_pem4f.oem4f (.const:ti_sysbios_knl_Semaphore_Instance_State_pendQ__O)
                  0000c794    00000004     release_pem4f.oem4f (.const:ti_sysbios_knl_Swi_Object__count__C)
                  0000c798    00000004     release_pem4f.oem4f (.const:ti_sysbios_knl_Task_Module_State_inactiveQ__O)
                  0000c79c    00000004     release_pem4f.oem4f (.const:ti_sysbios_knl_Task_Object__count__C)
                  0000c7a0    00000004     release_pem4f.oem4f (.const:ti_sysbios_knl_Task_Object__heap__C)
                  0000c7a4    00000004     release_pem4f.oem4f (.const:ti_sysbios_knl_Task_allBlockedFunc__C)
                  0000c7a8    00000004     release_pem4f.oem4f (.const:ti_sysbios_knl_Task_defaultStackHeap__C)
                  0000c7ac    00000004     release_pem4f.oem4f (.const:ti_sysbios_knl_Task_defaultStackSize__C)
                  0000c7b0    00000004     release_pem4f.oem4f (.const:ti_sysbios_knl_Task_numConstructedTasks__C)
                  0000c7b4    00000004     release_pem4f.oem4f (.const:xdc_runtime_Error_E_memory__C)
                  0000c7b8    00000004     release_pem4f.oem4f (.const:xdc_runtime_Error_policyFxn__C)
                  0000c7bc    00000004     release_pem4f.oem4f (.const:xdc_runtime_IGateProvider_Interface__BASE__C)
                  0000c7c0    00000004     release_pem4f.oem4f (.const:xdc_runtime_IHeap_Interface__BASE__C)
                  0000c7c4    00000004     release_pem4f.oem4f (.const:xdc_runtime_IModule_Interface__BASE__C)
                  0000c7c8    00000004     release_pem4f.oem4f (.const:xdc_runtime_Memory_defaultHeapInstance__C)
                  0000c7cc    00000004     release_pem4f.oem4f (.const:xdc_runtime_Startup_execImpl__C)
                  0000c7d0    00000004     release_pem4f.oem4f (.const:xdc_runtime_Startup_maxPasses__C)
                  0000c7d4    00000004     release_pem4f.oem4f (.const:xdc_runtime_Startup_sfxnRts__C)
                  0000c7d8    00000004     release_pem4f.oem4f (.const:xdc_runtime_Startup_sfxnTab__C)
                  0000c7dc    00000004     release_pem4f.oem4f (.const:xdc_runtime_SysCallback_abortFxn__C)
                  0000c7e0    00000004     release_pem4f.oem4f (.const:xdc_runtime_SysCallback_exitFxn__C)
                  0000c7e4    00000004     release_pem4f.oem4f (.const:xdc_runtime_System_Module__gateObj__C)
                  0000c7e8    00000004     release_pem4f.oem4f (.const:xdc_runtime_System_abortFxn__C)
                  0000c7ec    00000004     release_pem4f.oem4f (.const:xdc_runtime_System_exitFxn__C)
                  0000c7f0    00000004     release_pem4f.oem4f (.const:xdc_runtime_System_maxAtexitHandlers__C)
                  0000c7f4    00000002     release_pem4f.oem4f (.const:ti_sysbios_heaps_HeapMem_Module__id__C)
                  0000c7f6    00000002     release_pem4f.oem4f (.const:xdc_runtime_Memory_Module__id__C)

.cinit     0    0000c7f8    00000278     
                  0000c7f8    0000024d     (.cinit..data.load) [load image, compression = lzss]
                  0000ca45    00000003     --HOLE-- [fill = 0]
                  0000ca48    0000000c     (__TI_handler_table)
                  0000ca54    00000004     --HOLE-- [fill = 0]
                  0000ca58    00000008     (.cinit..bss.load) [load image, compression = zero_init]
                  0000ca60    00000010     (__TI_cinit_table)

.init_array 
*          0    00000000    00000000     UNINITIALIZED

.data      0    20008140    00000796     UNINITIALIZED
                  20008140    00000140     drivers_msp432p4x1xi.aem4f : PowerMSP432.oem4f (.data:PowerMSP432_perfLevels)
                  20008280    00000110                                : PWMTimerMSP432.oem4f (.data:pwmTimerStatus)
                  20008390    00000088     sysbios.aem4f : BIOS.obj (.data:$O1$$)
                  20008418    00000080     release_pem4f.oem4f (.data:ti_sysbios_knl_Swi_Module_State_0_readyQ__A)
                  20008498    00000080     release_pem4f.oem4f (.data:ti_sysbios_knl_Task_Module_State_0_readyQ__A)
                  20008518    00000054     release_pem4f.oem4f (.data:ti_sysbios_gates_GateMutex_Object__table__V)
                  2000856c    0000004c     release_pem4f.oem4f (.data:ti_sysbios_knl_Task_Object__table__V)
                  200085b8    00000044     release_pem4f.oem4f (.data:ti_sysbios_family_arm_msp432_Timer_Object__table__V)
                  200085fc    00000044     release_pem4f.oem4f (.data:ti_sysbios_knl_Task_Module__state__V)
                  20008640    00000034     release_pem4f.oem4f (.data:ti_sysbios_family_arm_m3_Hwi_Module__state__V)
                  20008674    00000030     release_pem4f.oem4f (.data:ti_sysbios_knl_Swi_Object__table__V)
                  200086a4    0000002c     drivers_msp432p4x1xi.aem4f : PowerMSP432.oem4f (.data:PowerMSP432_module)
                  200086d0    0000002c     release_pem4f.oem4f (.data:ti_sysbios_knl_Clock_Module__state__V)
                  200086fc    00000024     release_pem4f.oem4f (.data:ti_sysbios_BIOS_Module__state__V)
                  20008720    00000020     release_pem4f.oem4f (.data:ti_sysbios_family_arm_msp432_Timer_Module_State_0_device__A)
                  20008740    00000020     release_pem4f.oem4f (.data:xdc_runtime_Error_IgnoreBlock)
                  20008760    0000001c     release_pem4f.oem4f (.data:ti_sysbios_knl_Swi_Module__state__V)
                  2000877c    00000018     release_pem4f.oem4f (.data:ti_sysbios_family_arm_m3_Hwi_Object__table__V)
                  20008794    00000018     release_pem4f.oem4f (.data:ti_sysbios_heaps_HeapMem_Object__table__V)
                  200087ac    00000018     drivers_msp432p4x1xi.aem4f : TimerMSP432.oem4f (.data:upConfig)
                  200087c4    00000014     callbacks.obj (.data)
                  200087d8    00000014     led_thread.obj (.data:ledTogglePeriods)
                  200087ec    00000010     release_pem4f.oem4f (.data:ti_sysbios_family_arm_msp432_Timer_Module_State_0_handles__A)
                  200087fc    0000000c     cJSON.obj (.data:global_hooks)
                  20008808    0000000c     ti_drivers_config.obj (.data:gpioCallbackFunctions)
                  20008814    0000000c     ti_drivers_config.obj (.data:gpioPinConfigs)
                  20008820    0000000c     release_pem4f.oem4f (.data:ti_sysbios_family_arm_msp432_ClockFreqs_Module__state__V)
                  2000882c    0000000c     release_pem4f.oem4f (.data:ti_sysbios_family_arm_msp432_Timer_Module__state__V)
                  20008838    00000008     rtsv7M4_T_le_v4SPD16_eabi.lib : _lock.c.obj (.data:$O1$$)
                  20008840    00000008     drivers_msp432p4x1xi.aem4f : ADCMSP432.oem4f (.data)
                  20008848    00000008     release_pem4f.oem4f (.data:ti_sysbios_family_arm_m3_Hwi_Module__root__V)
                  20008850    00000008     release_pem4f.oem4f (.data:ti_sysbios_gates_GateHwi_Module__root__V)
                  20008858    00000008     release_pem4f.oem4f (.data:ti_sysbios_gates_GateMutex_Module__root__V)
                  20008860    00000008     release_pem4f.oem4f (.data:ti_sysbios_heaps_HeapMem_Module__root__V)
                  20008868    00000008     release_pem4f.oem4f (.data:ti_sysbios_knl_Clock_Module__root__V)
                  20008870    00000008     release_pem4f.oem4f (.data:ti_sysbios_knl_Mailbox_Module__root__V)
                  20008878    00000008     release_pem4f.oem4f (.data:ti_sysbios_knl_Queue_Module__root__V)
                  20008880    00000008     release_pem4f.oem4f (.data:ti_sysbios_knl_Semaphore_Module__root__V)
                  20008888    00000008     release_pem4f.oem4f (.data:ti_sysbios_knl_Task_Module__root__V)
                  20008890    00000008     release_pem4f.oem4f (.data:xdc_runtime_Startup_Module__state__V)
                  20008898    00000008     release_pem4f.oem4f (.data:xdc_runtime_System_Module_State_0_atexitHandlers__A)
                  200088a0    00000008     release_pem4f.oem4f (.data:xdc_runtime_System_Module__state__V)
                  200088a8    00000004     cJSON.obj (.data)
                  200088ac    00000004     rtsv7M4_T_le_v4SPD16_eabi.lib : rand.c.obj (.data)
                  200088b0    00000004                                   : stkdepth_vars.c.obj (.data)
                  200088b4    00000004     release_pem4f.oem4f (.data:ti_sysbios_family_arm_m3_Hwi_Module_State_0_excContext__A)
                  200088b8    00000004     release_pem4f.oem4f (.data:ti_sysbios_family_arm_m3_Hwi_Module_State_0_excStack__A)
                  200088bc    00000004     release_pem4f.oem4f (.data:ti_sysbios_gates_GateHwi_Object__table__V)
                  200088c0    00000004     release_pem4f.oem4f (.data:ti_sysbios_knl_Task_Module_State_0_idleTask__A)
                  200088c4    00000004     release_pem4f.oem4f (.data:ti_sysbios_rts_ti_ReentSupport_Module__state__V)
                  200088c8    00000004     release_pem4f.oem4f (.data:xdc_runtime_Memory_Module__state__V)
                  200088cc    00000002     drivers_msp432p4x1xi.aem4f : GPIOMSP432.oem4f (.data)
                  200088ce    00000002     led_thread.obj (.data)
                  200088d0    00000002     release_pem4f.oem4f (.data:ti_sysbios_family_arm_m3_Hwi_Module_State_0_excActive__A)
                  200088d2    00000001     drivers_msp432p4x1xi.aem4f : ADC.oem4f (.data)
                  200088d3    00000001                                : PWM.oem4f (.data)
                  200088d4    00000001                                : Timer.oem4f (.data)
                  200088d5    00000001                                : UART.oem4f (.data)

.bss       0    200088d8    00000610     UNINITIALIZED
                  200088d8    00000200     release_pem4f.oem4f (.bss:taskStackSection)
                  20008ad8    00000140     (.common:ti_sysbios_family_arm_m3_Hwi_dispatchTable)
                  20008c18    0000009c     (.common:timerMSP432Objects)
                  20008cb4    00000080     (.common:rxString)
                  20008d34    00000080     (.common:uartMSP432Objects)
                  20008db4    00000030     drivers_msp432p4x1xi.aem4f : GPIOMSP432.oem4f (.bss:gpioCallbackInfo)
                  20008de4    00000024     (.common:pwmTimerMSP432Objects)
                  20008e08    00000020     ti_drivers_config.obj (.bss:uartMSP432RingBuffer0)
                  20008e28    0000001c     (.common:semLCD)
                  20008e44    0000001c     (.common:semLED)
                  20008e60    0000001c     (.common:semTemp)
                  20008e7c    0000000c     (.common:pwms)
                  20008e88    0000000c     (.common:timer_params)
                  20008e94    00000008     msp432p4xx_driverlib.lib : cs.o (.bss)
                  20008e9c    00000008     (.common:dutys)
                  20008ea4    00000004     drivers_msp432p4x1xi.aem4f : GPIOMSP432.oem4f (.bss)
                  20008ea8    00000004     led_thread.obj (.bss)
                  20008eac    00000004     drivers_msp432p4x1xi.aem4f : TimerMSP432.oem4f (.bss:timerState)
                  20008eb0    00000004     (.common:ClockP_tickPeriod)
                  20008eb4    00000004     (.common:adcMSP432Objects)
                  20008eb8    00000004     (.common:blinkTimer)
                  20008ebc    00000004     (.common:debounceTimer)
                  20008ec0    00000004     (.common:intervalTimer)
                  20008ec4    00000004     (.common:lcdthread_handler)
                  20008ec8    00000004     (.common:ledthread_handler)
                  20008ecc    00000004     (.common:mqLCD)
                  20008ed0    00000004     (.common:mqLED)
                  20008ed4    00000004     (.common:rxJSONObject)
                  20008ed8    00000004     (.common:temperatureThread_handler)
                  20008edc    00000004     (.common:ti_sysbios_knl_Task_Instance_State_0_hookEnv__A)
                  20008ee0    00000004     (.common:timerValueOnTap)
                  20008ee4    00000004     (.common:uartthread_handler)

.priheap   0    20000140    00008000     UNINITIALIZED
                  20000140    00008000     --HOLE--

.stack     0    2003fc00    00000400     UNINITIALIZED
                  2003fc00    00000400     --HOLE--

.bootVecs 
*          0    00000000    00000008     DSECT
                  00000000    00000008     boot.aem4f : boot.oem4f (.bootVecs)

.resetVecs 
*          0    00000000    0000003c     
                  00000000    0000003c     release_pem4f.oem4f (.resetVecs)

.vecs      0    20000000    00000140     NOLOAD SECTION
                  20000000    00000140     release_pem4f.oem4f (.vecs)

xdc.meta   0    00000000    000000fe     COPY SECTION
                  00000000    000000fe     release_pem4f.oem4f (xdc.meta)

xdc.noload 
*          0    00000000    00000000     COPY SECTION

__llvm_prf_cnts 
*          0    20000000    00000000     UNINITIALIZED

.binit     0    00000000    00000000     

MODULE SUMMARY

       Module                       code    ro data   rw data
       ------                       ----    -------   -------
    .\
       led_thread.obj               1636    0         164    
       callbacks.obj                1320    0         96     
       uart_thread.obj              1012    16        272    
       temperature_thread.obj       416     0         64     
       main_tirtos.obj              444     0         0      
       lcd_thread.obj               252     0         72     
    +--+----------------------------+-------+---------+---------+
       Total:                       5080    16        668    
                                                             
    .\LCD_HAL\
       lcd_hal.obj                  1708    180       0      
    +--+----------------------------+-------+---------+---------+
       Total:                       1708    180       0      
                                                             
    .\cJSON\
       cJSON.obj                    2465    0         32     
    +--+----------------------------+-------+---------+---------+
       Total:                       2465    0         32     
                                                             
    .\syscfg\
       ti_drivers_config.obj        14      372       760    
    +--+----------------------------+-------+---------+---------+
       Total:                       14      372       760    
                                                             
    C:\Users\appna\workspace_v12\tirtos_builds_MSP_EXP432P4111_release_ccs\Debug\configPkg\package\cfg\
       release_pem4f.oem4f          1748    1157      4380   
    +--+----------------------------+-------+---------+---------+
       Total:                       1748    1157      4380   
                                                             
    C:/ti/simplelink_msp432p4_sdk_3_40_00_05/kernel/tirtos/packages/ti/dpl/lib/dpl_msp432p4x1xi.aem4f
       SemaphoreP_tirtos.oem4f      146     0         0      
       ClockP_tirtos.oem4f          114     0         8      
       PowerMSP432_tirtos.oem4f     122     0         0      
       HwiP_tirtos.oem4f            96      0         0      
    +--+----------------------------+-------+---------+---------+
       Total:                       478     0         8      
                                                             
    C:/ti/simplelink_msp432p4_sdk_3_40_00_05/source/ti/devices/msp432p4xx/driverlib/ccs/msp432p4xx_driverlib.lib
       pcm.o                        1770    0         0      
       adc14.o                      800     128       0      
       cs.o                         704     0         16     
       lcd_f.o                      560     0         0      
       uart.o                       284     0         0      
       gpio.o                       136     48        0      
       sysctl_a.o                   92      0         0      
       ref_a.o                      56      0         0      
       rtc_c.o                      44      0         0      
       wdt_a.o                      36      0         0      
       cpu.o                        28      0         0      
    +--+----------------------------+-------+---------+---------+
       Total:                       4510    176       16     
                                                             
    C:/ti/simplelink_msp432p4_sdk_3_40_00_05/source/ti/drivers/lib/drivers_msp432p4x1xi.aem4f
       UARTMSP432.oem4f             3414    81        0      
       PowerMSP432.oem4f            2140    0         728    
       PWMTimerMSP432.oem4f         1980    52        544    
       TimerMSP432.oem4f            1786    156       56     
       GPIOMSP432.oem4f             964     12        108    
       ADCMSP432.oem4f              696     24        16     
       PWM.oem4f                    182     24        2      
       UART.oem4f                   166     36        2      
       Timer.oem4f                  188     12        2      
       RingBuf.oem4f                184     0         0      
       ADC.oem4f                    152     8         2      
       List.oem4f                   76      0         0      
    +--+----------------------------+-------+---------+---------+
       Total:                       11928   405       1460   
                                                             
    C:\Users\appna\workspace_v12\tirtos_builds_MSP_EXP432P4111_release_ccs\src\sysbios\sysbios.aem4f
       BIOS.obj                     10062   0         272    
       m3_Hwi_asm.obj               318     0         0      
       m3_TaskSupport_asm.obj       180     0         0      
       m3_Hwi_asm_switch.obj        118     0         0      
    +--+----------------------------+-------+---------+---------+
       Total:                       10678   0         272    
                                                             
    C:\ti\ccs1200\ccs\tools\compiler\ti-cgt-arm_20.2.7.LTS\lib\rtsv7M4_T_le_v4SPD16_eabi.lib
       _printfi.c.obj               4851    0         0      
       strtod.c.obj                 1120    200       0      
       fd_add_t2.asm.obj            438     0         0      
       fd_div_t2.asm.obj            310     0         0      
       s_scalbn.c.obj               272     0         0      
       fd_cmp_t2.asm.obj            268     0         0      
       ctype.c.obj                  0       257       0      
       fd_mul_t2.asm.obj            252     0         0      
       memcpy_t2.asm.obj            156     0         0      
       ull_div_t2.asm.obj           150     0         0      
       s_floorf.c.obj               128     0         0      
       memset_t2.asm.obj            122     0         0      
       s_roundf.c.obj               110     0         0      
       copy_decompress_lzss.c.obj   104     0         0      
       s_frexp.c.obj                100     0         0      
       sprintf.c.obj                98      0         0      
       rand.c.obj                   88      0         8      
       _ltoa.c.obj                  84      0         0      
       atoi.c.obj                   76      0         0      
       cpy_tbl.c.obj                76      0         0      
       fd_toi_t2.asm.obj            72      0         0      
       fs_tod_t2.asm.obj            56      0         0      
       i_tofd_t2.asm.obj            46      0         0      
       strncmp.c.obj                44      0         0      
       _lock.c.obj                  26      0         16     
       memccpy.c.obj                28      0         0      
       s_copysign.c.obj             26      0         0      
       args_main.c.obj              24      0         0      
       strcmp.c.obj                 24      0         0      
       strchr.c.obj                 22      0         0      
       strcpy.c.obj                 20      0         0      
       strlen.c.obj                 20      0         0      
       wcslen.c.obj                 18      0         0      
       copy_decompress_none.c.obj   14      0         0      
       copy_zero_init.c.obj         12      0         0      
       stkdepth_vars.c.obj          0       0         8      
       div0.asm.obj                 2       0         0      
    +--+----------------------------+-------+---------+---------+
       Total:                       9257    457       32     
                                                             
    C:\ti\simplelink_msp432p4_sdk_3_40_00_05\kernel\tirtos\packages\ti\targets\arm\rtsarm\lib\auto_init.aem4f
       auto_init.oem4f              160     0         0      
    +--+----------------------------+-------+---------+---------+
       Total:                       160     0         0      
                                                             
    C:\ti\simplelink_msp432p4_sdk_3_40_00_05\kernel\tirtos\packages\ti\targets\arm\rtsarm\lib\boot.aem4f
       boot.oem4f                   88      0         0      
    +--+----------------------------+-------+---------+---------+
       Total:                       88      0         0      
                                                             
       Stack:                       0       0         2048   
       Linker Generated:            0       625       0      
    +--+----------------------------+-------+---------+---------+
       Grand Total:                 48114   3388      9676   


LINKER GENERATED COPY TABLES

__TI_cinit_table @ 0000ca60 records: 2, size/record: 8, table size: 16
	.data: load addr=0000c7f8, load size=0000024d bytes, run addr=20008140, run size=00000796 bytes, compression=lzss
	.bss: load addr=0000ca58, load size=00000008 bytes, run addr=200088d8, run size=00000610 bytes, compression=zero_init


LINKER GENERATED HANDLER TABLE

__TI_handler_table @ 0000ca48 records: 3, size/record: 4, table size: 12
	index: 0, handler: __TI_decompress_lzss
	index: 1, handler: __TI_decompress_none
	index: 2, handler: __TI_zero_init


GLOBAL SYMBOLS: SORTED ALPHABETICALLY BY Name 

address   name                                                            
-------   ----                                                            
00006151  ADC14_configureConversionMemory                                 
0000ac9d  ADC14_enableConversion                                          
0000a9d5  ADC14_getInterruptStatus                                        
0000acc5  ADC14_getResult                                                 
00009071  ADC14_initModule                                                
0000aa01  ADC14_toggleConversionTrigger                                   
00009ccd  ADCMSP432_close                                                 
0000422b  ADCMSP432_control                                               
00004dfd  ADCMSP432_convert                                               
000088cd  ADCMSP432_convertToMicroVolts                                   
0000c574  ADCMSP432_fxnTable                                              
0000a645  ADCMSP432_init                                                  
000074e1  ADCMSP432_open                                                  
0000bbe5  ADC_Params_init                                                 
0000c68c  ADC_config                                                      
0000bbef  ADC_convert                                                     
0000c71c  ADC_count                                                       
0000c6c8  ADC_defaultParams                                               
00009ae9  ADC_init                                                        
00009d0d  ADC_open                                                        
0000ba37  Board_init                                                      
00000a8f  Board_initHook                                                  
0000ba43  CPU_cpsid                                                       
0000ba4f  CPU_cpsie                                                       
00004ae5  CPU_wfi                                                         
0000b161  CS_setExternalClockSourceFrequency                              
000053bd  CS_startHFXTWithTimeout                                         
000054a1  CS_startLFXTWithTimeout                                         
0000bbf9  ClockP_Params_init                                              
00009315  ClockP_create                                                   
0000ba5b  ClockP_delete                                                   
0000b281  ClockP_getSystemTicks                                           
000058f5  ClockP_setTimeout                                               
00005e65  ClockP_start                                                    
00006095  ClockP_stop                                                     
20008eb0  ClockP_tickPeriod                                               
0000c634  GPIOMSP432_config                                               
0000a509  GPIO_clearInt                                                   
0000a53d  GPIO_enableInt                                                  
00008529  GPIO_hwiIntFxn                                                  
00006581  GPIO_init                                                       
0000b181  GPIO_read                                                       
0000779d  GPIO_setAsPeripheralModuleFunctionOutputPin                     
0000892d  GPIO_setCallback                                                
000038e5  GPIO_setConfig                                                  
00008eb9  GPIO_write                                                      
00008000  HEAPSIZE                                                        
0000b869  HwiP_Params_init                                                
00009d4d  HwiP_create                                                     
0000ba67  HwiP_delete                                                     
0000662d  HwiP_disable                                                    
0000bcd1  HwiP_restore                                                    
0000ba75  LCD_F_clearAllAnimationMemory                                   
0000ba81  LCD_F_clearAllBlinkingMemory                                    
0000ba8d  LCD_F_clearAllMemory                                            
0000ba99  LCD_F_disableAnimation                                          
0000baa5  LCD_F_enableAnimation                                           
00009549  LCD_F_initModule                                                
0000aa2d  LCD_F_setAnimationControl                                       
00008145  LCD_F_setPinAsCOM                                               
00009d8d  LCD_F_setPinAsLCDFunction                                       
00006205  LCD_F_setPinsAsLCDFunction                                      
0000bab1  LCD_F_turnOff                                                   
0000babd  LCD_F_turnOn                                                    
0000a3b7  LCD_clear                                                       
00006e79  LCD_init                                                        
00005661  LCD_scrollString                                                
00002561  LCD_showChar                                                    
00009365  LCD_showString                                                  
000030a9  LCD_showTemperatureC                                            
0000b6bf  LCD_startAnimation                                              
0000bc7f  LCD_stopAnimation                                               
00008b71  LCD_updateAnimationMemory                                       
00008bcd  LCD_updateMemory                                                
0000ae59  List_put                                                        
0000ae7f  List_remove                                                     
00008b11  PCM_getCoreVoltageLevel                                         
00008e05  PCM_getPowerMode                                                
0000b6d5  PCM_getPowerState                                               
0000aced  PCM_gotoLPM0                                                    
00007ad1  PCM_gotoLPM3                                                    
0000b879  PCM_gotoLPM4                                                    
0000b889  PCM_setPowerMode                                                
0000b899  PCM_setPowerState                                               
000090c5  PCM_shutdownDevice                                              
00007825  PWMTimerMSP432_close                                            
0000b803  PWMTimerMSP432_control                                          
0000c28c  PWMTimerMSP432_fxnTable                                         
0000206b  PWMTimerMSP432_init                                             
00002789  PWMTimerMSP432_open                                             
00007041  PWMTimerMSP432_setDuty                                          
0000b81b  PWMTimerMSP432_setDutyAndPeriod                                 
0000459d  PWMTimerMSP432_setPeriod                                        
00007d6d  PWMTimerMSP432_start                                            
00006c09  PWMTimerMSP432_stop                                             
0000b6e9  PWM_Params_init                                                 
0000c2b0  PWM_config                                                      
0000c71d  PWM_count                                                       
0000c58c  PWM_defaultParams                                               
00009b2d  PWM_init                                                        
00009dcd  PWM_open                                                        
0000bc03  PWM_setDuty                                                     
0000bc0d  PWM_start                                                       
0000bc17  PWM_stop                                                        
0000c0ec  PowerMSP432_config                                              
00008591  PowerMSP432_getFreqs                                            
0000b8a9  PowerMSP432_getNumPerfLevels                                    
000030a7  PowerMSP432_initPolicy                                          
200086a4  PowerMSP432_module                                              
20008140  PowerMSP432_perfLevels                                          
00009595  PowerMSP432_sleepPolicy                                         
0000aa59  PowerMSP432_updateFreqs                                         
0000bac9  Power_getConstraintMask                                         
0000bad5  Power_getPerformanceLevel                                       
0000b6fd  Power_idleFunc                                                  
0000756d  Power_init                                                      
0000ad15  Power_registerNotify                                            
000098ed  Power_releaseConstraint                                         
0000a3f1  Power_setConstraint                                             
000015bd  Power_sleep                                                     
0000b1a1  Power_unregisterNotify                                          
0000bae1  REF_A_enableReferenceVoltage                                    
0000baed  REF_A_enableTempSensor                                          
0000b1c1  REF_A_setReferenceVoltage                                       
0000aa85  RTC_C_holdClock                                                 
0000b7c9  RingBuf_construct                                               
00009e0d  RingBuf_get                                                     
0000b1e1  RingBuf_peek                                                    
00009aa1  RingBuf_put                                                     
200087ce  S1buttonDebounce                                                
200087d0  S2buttonDebounce                                                
UNDEFED   SHT$$INIT_ARRAY$$Base                                           
UNDEFED   SHT$$INIT_ARRAY$$Limit                                          
0000bc87  SemaphoreP_Params_init                                          
0000a1cd  SemaphoreP_create                                               
0000aab1  SemaphoreP_createBinary                                         
0000baf9  SemaphoreP_delete                                               
0000b7db  SemaphoreP_pend                                                 
0000682d  SemaphoreP_post                                                 
0000b4e1  SysCtl_A_disableNMISource                                       
0000b4f9  SysCtl_A_enableNMISource                                        
0000b8b9  SysCtl_A_getNMISourceStatus                                     
0000b33d  SysCtl_A_getTempCalibrationConstant                             
0000c188  TimerMSP432HWAttrs                                              
0000c3f4  TimerMSP432_Timer32_fxnTable                                    
0000c414  TimerMSP432_Timer_A_fxnTable                                    
00007f65  TimerMSP432_allocateTimerResource                               
000094f9  TimerMSP432_close                                               
0000bcc1  TimerMSP432_control                                             
00009119  TimerMSP432_freeTimerResource                                   
0000a429  TimerMSP432_getCount                                            
000049db  TimerMSP432_init                                                
00003e6d  TimerMSP432_open                                                
00005ced  TimerMSP432_setPeriod                                           
00005da9  TimerMSP432_start                                               
00007b55  TimerMSP432_stop                                                
0000b8c9  Timer_Params_init                                               
0000bc21  Timer_close                                                     
0000c2d4  Timer_config                                                    
0000c71e  Timer_count                                                     
0000bc2b  Timer_getCount                                                  
00009b71  Timer_init                                                      
00009e4d  Timer_open                                                      
0000bc35  Timer_start                                                     
0000bc3f  Timer_stop                                                      
00006f11  UARTMSP432_close                                                
00005c2d  UARTMSP432_control                                              
0000c214  UARTMSP432_fxnTable                                             
00005b67  UARTMSP432_hwiIntFxn                                            
000053bb  UARTMSP432_init                                                 
000012e5  UARTMSP432_open                                                 
00009e8d  UARTMSP432_read                                                 
0000a4d1  UARTMSP432_readCancel                                           
0000573d  UARTMSP432_readPolling                                          
00006a25  UARTMSP432_write                                                
00008455  UARTMSP432_writeCancel                                          
000062b9  UARTMSP432_writePolling                                         
0000b511  UART_Params_init                                                
0000c698  UART_config                                                     
0000c71f  UART_count                                                      
0000c2f8  UART_defaultParams                                              
00009bb5  UART_init                                                       
00004481  UART_initModule                                                 
00009ecd  UART_open                                                       
0000bc49  UART_read                                                       
4000480c  WDTCTL_SYM                                                      
0000af19  WDT_A_holdTimer                                                 
00000000  __ASM__                                                         
0000007f  __ISA__                                                         
00000092  __PLAT__                                                        
20040000  __STACK_END                                                     
00000400  __STACK_SIZE                                                    
000000b5  __TARG__                                                        
0000ca60  __TI_CINIT_Base                                                 
0000ca70  __TI_CINIT_Limit                                                
0000ca48  __TI_Handler_Table_Base                                         
0000ca54  __TI_Handler_Table_Limit                                        
00006ac9  __TI_auto_init                                                  
00008661  __TI_decompress_lzss                                            
0000b9f9  __TI_decompress_none                                            
0000916d  __TI_ltoa                                                       
ffffffff  __TI_pprof_out_hndl                                             
00000041  __TI_printfi                                                    
ffffffff  __TI_prof_data_size                                             
ffffffff  __TI_prof_data_start                                            
0000c7f8  __TI_static_base__                                              
0000bb1d  __TI_zero_init                                                  
000000db  __TRDR__                                                        
00007939  __aeabi_cdcmpeq                                                 
00007939  __aeabi_cdcmple                                                 
000079bf  __aeabi_cdrcmple                                                
00009935  __aeabi_d2iz                                                    
00002efb  __aeabi_dadd                                                    
000040f5  __aeabi_ddiv                                                    
00004ff5  __aeabi_dmul                                                    
00002ef1  __aeabi_dsub                                                    
0000bd09  __aeabi_errno_addr                                              
0000a499  __aeabi_f2d                                                     
0000a979  __aeabi_i2d                                                     
0000641f  __aeabi_idiv0                                                   
0000641f  __aeabi_ldiv0                                                   
00007ee9  __aeabi_memclr                                                  
00007ee9  __aeabi_memclr4                                                 
00007ee9  __aeabi_memclr8                                                 
00006ca5  __aeabi_memcpy                                                  
00006ca5  __aeabi_memcpy4                                                 
00006ca5  __aeabi_memcpy8                                                 
00007eeb  __aeabi_memset                                                  
00007eeb  __aeabi_memset4                                                 
00007eeb  __aeabi_memset8                                                 
00006fa9  __aeabi_uldivmod                                                
ffffffff  __binit__                                                       
ffffffff  __c_args__                                                      
20008140  __primary_heap_end__                                            
20000140  __primary_heap_start__                                          
2003fc00  __stack                                                         
20000000  __start___llvm_prf_cnts                                         
20000000  __stop___llvm_prf_cnts                                          
0000b529  _args_main                                                      
00008f11  _c_int00                                                        
0000bd68  _ctypes_                                                        
20008838  _lock                                                           
00005c2b  _nop                                                            
0000aae1  _pthread_cleanupFxn                                             
0000b7f1  _pthread_cleanup_pop                                            
000070d9  _pthread_removeThreadKeys                                       
0000bb05  _register_lock                                                  
0000bb11  _register_unlock                                                
2000883c  _unlock                                                         
0000c66c  adcMSP432HWAttrs                                                
20008eb4  adcMSP432Objects                                                
0000bfb8  alphabetUppercase                                               
000095e1  atoi                                                            
ffffffff  binit                                                           
20008eb8  blinkTimer                                                      
00008c29  blinkTimer_Callback                                             
00007fdd  cJSON_Delete                                                    
0000a571  cJSON_GetArrayItem                                              
0000ab3d  cJSON_GetArraySize                                              
0000a37d  cJSON_GetObjectItemCaseSensitive                                
0000af3d  cJSON_IsArray                                                   
0000b8d9  cJSON_Parse                                                     
000073c1  cJSON_ParseWithOpts                                             
0000962d  copy_in                                                         
0000b4ad  copysign                                                        
0000b4ad  copysignl                                                       
200087c4  counting                                                        
000085f9  debounceGPIO                                                    
20008ebc  debounceTimer                                                   
00001b49  debounceTimer_Callback                                          
0000c23c  digit                                                           
20008e9c  dutys                                                           
200087c7  enteringExtTempMode                                             
200087c6  enteringIntTempMode                                             
200087c5  enteringTempMode                                                
200087c9  externaltempSensor                                              
00007ded  floorf                                                          
0000b4c7  free                                                            
00008801  frexp                                                           
00008801  frexpl                                                          
000046b1  gpioButton0_Callback                                            
0000716d  gpioButton1_Callback                                            
20008808  gpioCallbackFunctions                                           
20008814  gpioPinConfigs                                                  
0000c6d0  heap0                                                           
200087c8  inTempMode                                                      
20008ec0  intervalTimer                                                   
0000adb5  intervalTimer_Callback                                          
0000c5a4  lcdConf                                                         
0000c706  lcdPositions                                                    
00004ef9  lcdThread                                                       
20008ec4  lcdthread_handler                                               
000047c1  ldexp                                                           
000047c1  ldexpl                                                          
00001891  ledThread                                                       
200087d8  ledTogglePeriods                                                
20008ec8  ledthread_handler                                               
00002d35  main                                                            
200088b0  main_func_sp                                                    
0000a9a7  malloc                                                          
0000b359  memccpy                                                         
00006ca5  memcpy                                                          
00007ef1  memset                                                          
20008ecc  mqLCD                                                           
20008ed0  mqLED                                                           
00003261  mq_open                                                         
00009f91  mq_receive                                                      
00009409  mq_send                                                         
200087cc  numIntervals                                                    
0000af61  pthread_attr_init                                               
0000ba09  pthread_attr_setdetachstate                                     
0000b729  pthread_attr_setschedparam                                      
0000bc91  pthread_attr_setstacksize                                       
000050f1  pthread_create                                                  
00008991  pthread_exit                                                    
200088ce  pwmPeriod                                                       
0000c5bc  pwmTimerMSP432HWAttrs                                           
20008de4  pwmTimerMSP432Objects                                           
20008e7c  pwms                                                            
0000a5a5  rand                                                            
0000a18f  realloc                                                         
00008377  roundf                                                          
20008ed4  rxJSONObject                                                    
20008cb4  rxString                                                        
000047c1  scalbn                                                          
000047c1  scalbnl                                                         
200087ca  scrolling                                                       
20008e28  semLCD                                                          
20008e44  semLED                                                          
20008e60  semTemp                                                         
0000ac71  sem_init                                                        
0000bc61  sem_post                                                        
0000ba19  sem_wait                                                        
0000a011  sprintf                                                         
0000af85  srand                                                           
0000b661  strchr                                                          
0000b571  strcmp                                                          
0000b73d  strcpy                                                          
0000b751  strlen                                                          
0000ab95  strncmp                                                         
00000a91  strtod                                                          
00000a91  strtold                                                         
000035b1  temperatureThread                                               
20008ed8  temperatureThread_handler                                       
200086fc  ti_sysbios_BIOS_Module__state__V                                
0000abed  ti_sysbios_BIOS_RtsGateProxy_Handle__label__S                   
0000697d  ti_sysbios_BIOS_RtsGateProxy_enter__E                           
000070d5  ti_sysbios_BIOS_RtsGateProxy_leave__E                           
0000bd19  ti_sysbios_BIOS_RtsGateProxy_query__E                           
0000a709  ti_sysbios_BIOS_atExitFunc__I                                   
0000b677  ti_sysbios_BIOS_exitFunc__I                                     
0000b8f9  ti_sysbios_BIOS_exit__E                                         
0000bd31  ti_sysbios_BIOS_linkedWithIncorrectBootLibrary__E               
0000657f  ti_sysbios_BIOS_nullFunc__I                                     
0000afa9  ti_sysbios_BIOS_registerRTSLock__I                              
0000afcd  ti_sysbios_BIOS_removeRTSLock__I                                
0000b201  ti_sysbios_BIOS_rtsLock__I                                      
0000b589  ti_sysbios_BIOS_rtsUnlock__I                                    
0000b909  ti_sysbios_BIOS_setCpuFreq__E                                   
0000b919  ti_sysbios_BIOS_setThreadType__E                                
0000a739  ti_sysbios_BIOS_startFunc__I                                    
0000b929  ti_sysbios_BIOS_start__E                                        
0000c720  ti_sysbios_family_arm_m3_Hwi_E_alreadyDefined__C                
0000c724  ti_sysbios_family_arm_m3_Hwi_E_badIntNum__C                     
0000a209  ti_sysbios_family_arm_m3_Hwi_Instance_finalize__E               
00006099  ti_sysbios_family_arm_m3_Hwi_Instance_init__E                   
200088d0  ti_sysbios_family_arm_m3_Hwi_Module_State_0_excActive__A        
200088b4  ti_sysbios_family_arm_m3_Hwi_Module_State_0_excContext__A       
200088b8  ti_sysbios_family_arm_m3_Hwi_Module_State_0_excStack__A         
0000c65a  ti_sysbios_family_arm_m3_Hwi_Module__id__C                      
20008848  ti_sysbios_family_arm_m3_Hwi_Module__root__V                    
0000b5a1  ti_sysbios_family_arm_m3_Hwi_Module__startupDone__F             
0000b5a1  ti_sysbios_family_arm_m3_Hwi_Module__startupDone__S             
20008640  ti_sysbios_family_arm_m3_Hwi_Module__state__V                   
00009459  ti_sysbios_family_arm_m3_Hwi_Module_startup__E                  
0000c728  ti_sysbios_family_arm_m3_Hwi_NUM_INTERRUPTS__C                  
0000c454  ti_sysbios_family_arm_m3_Hwi_Object__DESC__C                    
0000c1b8  ti_sysbios_family_arm_m3_Hwi_Object__PARAMS__C                  
0000c72c  ti_sysbios_family_arm_m3_Hwi_Object__count__C                   
0000b221  ti_sysbios_family_arm_m3_Hwi_Object__delete__S                  
0000b765  ti_sysbios_family_arm_m3_Hwi_Object__get__S                     
2000877c  ti_sysbios_family_arm_m3_Hwi_Object__table__V                   
0000bb29  ti_sysbios_family_arm_m3_Hwi_Params__init__S                    
0000c730  ti_sysbios_family_arm_m3_Hwi_ccr__C                             
000091c1  ti_sysbios_family_arm_m3_Hwi_create                             
00007295  ti_sysbios_family_arm_m3_Hwi_delete                             
0000bb39  ti_sysbios_family_arm_m3_Hwi_disableFxn__E                      
00009981  ti_sysbios_family_arm_m3_Hwi_disableInterrupt__E                
00008869  ti_sysbios_family_arm_m3_Hwi_dispatchC__I                       
20008ad8  ti_sysbios_family_arm_m3_Hwi_dispatchTable                      
000051e1  ti_sysbios_family_arm_m3_Hwi_dispatch__I                        
0000bca1  ti_sysbios_family_arm_m3_Hwi_doSwiRestore__I                    
0000bcc9  ti_sysbios_family_arm_m3_Hwi_doTaskRestore__I                   
000099c9  ti_sysbios_family_arm_m3_Hwi_enableInterrupt__E                 
0000addd  ti_sysbios_family_arm_m3_Hwi_excHandlerAsm__I                   
0000c734  ti_sysbios_family_arm_m3_Hwi_excHandlerFunc__C                  
0000b379  ti_sysbios_family_arm_m3_Hwi_excHandler__I                      
00009bf9  ti_sysbios_family_arm_m3_Hwi_getStackInfo__E                    
00007201  ti_sysbios_family_arm_m3_Hwi_initNVIC__E                        
00008fc1  ti_sysbios_family_arm_m3_Hwi_initStacks__E                      
000052b5  ti_sysbios_family_arm_m3_Hwi_interruptsAreDisabledButShouldNotBe
0000c738  ti_sysbios_family_arm_m3_Hwi_nullIsrFunc__C                     
e000e000  ti_sysbios_family_arm_m3_Hwi_nvic                               
0000aef1  ti_sysbios_family_arm_m3_Hwi_pendSV__I                          
00007c61  ti_sysbios_family_arm_m3_Hwi_postInit__I                        
0000c73c  ti_sysbios_family_arm_m3_Hwi_priGroup__C                        
20000000  ti_sysbios_family_arm_m3_Hwi_ramVectors                         
00000000  ti_sysbios_family_arm_m3_Hwi_resetVectors                       
0000bcd1  ti_sysbios_family_arm_m3_Hwi_restoreFxn__E                      
0000af15  ti_sysbios_family_arm_m3_Hwi_return                             
0000bca9  ti_sysbios_family_arm_m3_Hwi_startup__E                         
0000c740  ti_sysbios_family_arm_m3_Hwi_swiDisable__C                      
0000c744  ti_sysbios_family_arm_m3_Hwi_swiRestore__C                      
0000b779  ti_sysbios_family_arm_m3_Hwi_switchFromBootStack__E             
000078ad  ti_sysbios_family_arm_m3_TaskSupport_Module__startupDone__S     
00007685  ti_sysbios_family_arm_m3_TaskSupport_buildTaskStack             
0000bb49  ti_sysbios_family_arm_m3_TaskSupport_getStackAlignment__E       
0000b939  ti_sysbios_family_arm_m3_TaskSupport_glue                       
0000c748  ti_sysbios_family_arm_m3_TaskSupport_stackAlignment__C          
0000a769  ti_sysbios_family_arm_m3_TaskSupport_start__E                   
0000b5b9  ti_sysbios_family_arm_m3_TaskSupport_swap__E                    
20008820  ti_sysbios_family_arm_msp432_ClockFreqs_Module__state__V        
0000aff1  ti_sysbios_family_arm_msp432_ClockFreqs_setFrequency__E         
0000a249  ti_sysbios_family_arm_msp432_Seconds_Module_startup__E          
20008720  ti_sysbios_family_arm_msp432_Timer_Module_State_0_device__A     
200087ec  ti_sysbios_family_arm_msp432_Timer_Module_State_0_handles__A    
0000b5d1  ti_sysbios_family_arm_msp432_Timer_Module__startupDone__F       
0000b5d1  ti_sysbios_family_arm_msp432_Timer_Module__startupDone__S       
2000882c  ti_sysbios_family_arm_msp432_Timer_Module__state__V             
0000a051  ti_sysbios_family_arm_msp432_Timer_Module_startup__E            
200085b8  ti_sysbios_family_arm_msp432_Timer_Object__table__V             
00008c89  ti_sysbios_family_arm_msp432_Timer_getCurrentTick__E            
0000bb59  ti_sysbios_family_arm_msp432_Timer_getMaxTicks__E               
00009219  ti_sysbios_family_arm_msp432_Timer_initDevice__I                
0000c74c  ti_sysbios_family_arm_msp432_Timer_numTimerDevices__C           
00006831  ti_sysbios_family_arm_msp432_Timer_periodicStub__E              
00009711  ti_sysbios_family_arm_msp432_Timer_postInit__I                  
000089f1  ti_sysbios_family_arm_msp432_Timer_setNextTick__E               
00009761  ti_sysbios_family_arm_msp432_Timer_start__E                     
0000c750  ti_sysbios_family_arm_msp432_Timer_startupNeeded__C             
0000a091  ti_sysbios_family_arm_msp432_Timer_startup__E                   
0000b949  ti_sysbios_family_arm_msp432_init_Boot_disableWatchdog          
0000325d  ti_sysbios_family_arm_msp432_init_Boot_init__I                  
0000b31f  ti_sysbios_family_xxx_Hwi_switchAndRunFunc                      
0000abc1  ti_sysbios_gates_GateHwi_Handle__label__S                       
0000bd39  ti_sysbios_gates_GateHwi_Instance_init__E                       
0000c31c  ti_sysbios_gates_GateHwi_Module__FXNS__C                        
20008850  ti_sysbios_gates_GateHwi_Module__root__V                        
0000c474  ti_sysbios_gates_GateHwi_Object__DESC__C                        
0000c5d4  ti_sysbios_gates_GateHwi_Object__PARAMS__C                      
0000a799  ti_sysbios_gates_GateHwi_Object__create__S                      
0000b241  ti_sysbios_gates_GateHwi_Object__delete__S                      
200088bc  ti_sysbios_gates_GateHwi_Object__table__V                       
0000bb69  ti_sysbios_gates_GateHwi_enter__E                               
0000bcd9  ti_sysbios_gates_GateHwi_leave__E                               
0000bd11  ti_sysbios_gates_GateHwi_query__E                               
0000abed  ti_sysbios_gates_GateMutex_Handle__label__S                     
0000c754  ti_sysbios_gates_GateMutex_Instance_State_sem__O                
0000b959  ti_sysbios_gates_GateMutex_Instance_finalize__E                 
0000b399  ti_sysbios_gates_GateMutex_Instance_init__E                     
0000c340  ti_sysbios_gates_GateMutex_Module__FXNS__C                      
20008858  ti_sysbios_gates_GateMutex_Module__root__V                      
0000c494  ti_sysbios_gates_GateMutex_Object__DESC__C                      
0000c5ec  ti_sysbios_gates_GateMutex_Object__PARAMS__C                    
0000a7c9  ti_sysbios_gates_GateMutex_Object__create__S                    
0000b015  ti_sysbios_gates_GateMutex_Object__delete__S                    
20008518  ti_sysbios_gates_GateMutex_Object__table__V                     
0000a7f9  ti_sysbios_gates_GateMutex_enter__E                             
0000b5e9  ti_sysbios_gates_GateMutex_leave__E                             
0000bd19  ti_sysbios_gates_GateMutex_query__E                             
0000b5a1  ti_sysbios_hal_Hwi_HwiProxy_Module__startupDone__S              
0000bb29  ti_sysbios_hal_Hwi_HwiProxy_Params__init__S                     
00009981  ti_sysbios_hal_Hwi_HwiProxy_disableInterrupt__E                 
0000bb39  ti_sysbios_hal_Hwi_HwiProxy_disable__E                          
000099c9  ti_sysbios_hal_Hwi_HwiProxy_enableInterrupt__E                  
00009bf9  ti_sysbios_hal_Hwi_HwiProxy_getStackInfo__E                     
0000bcd1  ti_sysbios_hal_Hwi_HwiProxy_restore__E                          
0000bca9  ti_sysbios_hal_Hwi_HwiProxy_startup__E                          
0000b779  ti_sysbios_hal_Hwi_HwiProxy_switchFromBootStack__E              
0000b821  ti_sysbios_hal_Hwi_Module_startup__E                            
00009981  ti_sysbios_hal_Hwi_disableInterrupt__E                          
000099c9  ti_sysbios_hal_Hwi_enableInterrupt__E                           
00009bf9  ti_sysbios_hal_Hwi_getStackInfo__E                              
0000a611  ti_sysbios_hal_Hwi_initStack                                    
0000bca9  ti_sysbios_hal_Hwi_startup__E                                   
0000b779  ti_sysbios_hal_Hwi_switchFromBootStack__E                       
0000c758  ti_sysbios_heaps_HeapMem_E_memory__C                            
0000ac19  ti_sysbios_heaps_HeapMem_Handle__label__S                       
0000a0d1  ti_sysbios_heaps_HeapMem_Instance_init__E                       
0000abed  ti_sysbios_heaps_HeapMem_Module_GateProxy_Handle__label__S      
00007a45  ti_sysbios_heaps_HeapMem_Module_GateProxy_enter__E              
00007c5d  ti_sysbios_heaps_HeapMem_Module_GateProxy_leave__E              
0000bd19  ti_sysbios_heaps_HeapMem_Module_GateProxy_query__E              
0000c264  ti_sysbios_heaps_HeapMem_Module__FXNS__C                        
0000c75c  ti_sysbios_heaps_HeapMem_Module__gateObj__C                     
0000c7f4  ti_sysbios_heaps_HeapMem_Module__id__C                          
20008860  ti_sysbios_heaps_HeapMem_Module__root__V                        
0000c4b4  ti_sysbios_heaps_HeapMem_Object__DESC__C                        
0000c364  ti_sysbios_heaps_HeapMem_Object__PARAMS__C                      
0000c760  ti_sysbios_heaps_HeapMem_Object__count__C                       
0000a829  ti_sysbios_heaps_HeapMem_Object__create__S                      
0000b261  ti_sysbios_heaps_HeapMem_Object__delete__S                      
0000b78d  ti_sysbios_heaps_HeapMem_Object__get__S                         
20008794  ti_sysbios_heaps_HeapMem_Object__table__V                       
000059d1  ti_sysbios_heaps_HeapMem_alloc__E                               
00007ce9  ti_sysbios_heaps_HeapMem_free__E                                
000097b1  ti_sysbios_heaps_HeapMem_getStats__E                            
00008229  ti_sysbios_heaps_HeapMem_initPrimary__I                         
0000bce1  ti_sysbios_heaps_HeapMem_isBlocking__E                          
0000c764  ti_sysbios_heaps_HeapMem_primaryHeapBaseAddr__C                 
0000c768  ti_sysbios_heaps_HeapMem_primaryHeapEndAddr__C                  
0000c76c  ti_sysbios_heaps_HeapMem_reqAlign__C                            
0000b3b9  ti_sysbios_knl_Clock_Instance_finalize__E                       
0000a111  ti_sysbios_knl_Clock_Instance_init__E                           
0000c770  ti_sysbios_knl_Clock_Module_State_clockQ__O                     
20008868  ti_sysbios_knl_Clock_Module__root__V                            
200086d0  ti_sysbios_knl_Clock_Module__state__V                           
0000b039  ti_sysbios_knl_Clock_Module_startup__E                          
0000c4d4  ti_sysbios_knl_Clock_Object__DESC__C                            
0000c388  ti_sysbios_knl_Clock_Object__PARAMS__C                          
0000b05d  ti_sysbios_knl_Clock_Object__delete__S                          
0000bb75  ti_sysbios_knl_Clock_Params__init__S                            
0000b5d1  ti_sysbios_knl_Clock_TimerProxy_Module__startupDone__S          
00007ce5  ti_sysbios_knl_Clock_TimerProxy_getCurrentTick__E               
00008055  ti_sysbios_knl_Clock_TimerProxy_getMaxTicks__E                  
000080cd  ti_sysbios_knl_Clock_TimerProxy_setNextTick__E                  
0000a091  ti_sysbios_knl_Clock_TimerProxy_startup__E                      
0000ae09  ti_sysbios_knl_Clock_addI__E                                    
0000a285  ti_sysbios_knl_Clock_create                                     
00008225  ti_sysbios_knl_Clock_delete                                     
0000b7a1  ti_sysbios_knl_Clock_doTick__I                                  
0000b281  ti_sysbios_knl_Clock_getTicks__E                                
0000bd41  ti_sysbios_knl_Clock_logTick__E                                 
0000b3d9  ti_sysbios_knl_Clock_scheduleNextTick__E                        
0000bd21  ti_sysbios_knl_Clock_setTimeout__E                              
00008731  ti_sysbios_knl_Clock_startI__E                                  
0000b691  ti_sysbios_knl_Clock_start__E                                   
0000bce9  ti_sysbios_knl_Clock_stop__E                                    
0000c774  ti_sysbios_knl_Clock_tickPeriod__C                              
00008059  ti_sysbios_knl_Clock_walkQueueDynamic__E                        
00006421  ti_sysbios_knl_Clock_workFuncDynamic__E                         
0000c6d8  ti_sysbios_knl_Idle_funcList__A                                 
0000c6e0  ti_sysbios_knl_Idle_funcList__C                                 
0000ba29  ti_sysbios_knl_Idle_loop__E                                     
0000b2a1  ti_sysbios_knl_Idle_run__E                                      
0000c778  ti_sysbios_knl_Mailbox_Instance_State_dataQue__O                
0000c77c  ti_sysbios_knl_Mailbox_Instance_State_dataSem__O                
0000c780  ti_sysbios_knl_Mailbox_Instance_State_freeQue__O                
0000c784  ti_sysbios_knl_Mailbox_Instance_State_freeSem__O                
00008299  ti_sysbios_knl_Mailbox_Instance_finalize__E                     
000058f9  ti_sysbios_knl_Mailbox_Instance_init__E                         
20008870  ti_sysbios_knl_Mailbox_Module__root__V                          
00009a11  ti_sysbios_knl_Mailbox_Module_startup__E                        
0000c4f4  ti_sysbios_knl_Mailbox_Object__DESC__C                          
0000c124  ti_sysbios_knl_Mailbox_Object__PARAMS__C                        
0000c788  ti_sysbios_knl_Mailbox_Object__count__C                         
0000b969  ti_sysbios_knl_Mailbox_Object__get__S                           
0000926d  ti_sysbios_knl_Mailbox_create                                   
0000c78c  ti_sysbios_knl_Mailbox_maxTypeAlign__C                          
000080d1  ti_sysbios_knl_Mailbox_pend__E                                  
0000a859  ti_sysbios_knl_Mailbox_postInit__I                              
000078b1  ti_sysbios_knl_Mailbox_post__E                                  
0000bcf1  ti_sysbios_knl_Queue_Instance_init__E                           
20008878  ti_sysbios_knl_Queue_Module__root__V                            
0000c514  ti_sysbios_knl_Queue_Object__DESC__C                            
0000c604  ti_sysbios_knl_Queue_Object__PARAMS__C                          
0000bb81  ti_sysbios_knl_Queue_Object__get__S                             
0000ac45  ti_sysbios_knl_Queue_construct                                  
0000b3f5  ti_sysbios_knl_Queue_destruct                                   
0000b411  ti_sysbios_knl_Queue_get__E                                     
0000b431  ti_sysbios_knl_Queue_put__E                                     
0000c790  ti_sysbios_knl_Semaphore_Instance_State_pendQ__O                
0000b979  ti_sysbios_knl_Semaphore_Instance_finalize__E                   
0000b081  ti_sysbios_knl_Semaphore_Instance_init__E                       
20008880  ti_sysbios_knl_Semaphore_Module__root__V                        
0000c534  ti_sysbios_knl_Semaphore_Object__DESC__C                        
0000c3ac  ti_sysbios_knl_Semaphore_Object__PARAMS__C                      
0000b0a5  ti_sysbios_knl_Semaphore_Object__delete__S                      
0000bb8d  ti_sysbios_knl_Semaphore_Params__init__S                        
0000a889  ti_sysbios_knl_Semaphore_construct                              
0000a5d9  ti_sysbios_knl_Semaphore_create                                 
000083e5  ti_sysbios_knl_Semaphore_delete                                 
0000b2c1  ti_sysbios_knl_Semaphore_destruct                               
0000a8b9  ti_sysbios_knl_Semaphore_pendTimeout__I                         
00004231  ti_sysbios_knl_Semaphore_pend__E                                
00008a51  ti_sysbios_knl_Semaphore_post__E                                
20008418  ti_sysbios_knl_Swi_Module_State_0_readyQ__A                     
20008760  ti_sysbios_knl_Swi_Module__state__V                             
0000ae31  ti_sysbios_knl_Swi_Module_startup__E                            
0000c794  ti_sysbios_knl_Swi_Object__count__C                             
0000b7b5  ti_sysbios_knl_Swi_Object__get__S                               
20008674  ti_sysbios_knl_Swi_Object__table__V                             
0000b989  ti_sysbios_knl_Swi_disable__E                                   
00009c41  ti_sysbios_knl_Swi_post__E                                      
000083e9  ti_sysbios_knl_Swi_restoreHwi__E                                
0000a2c1  ti_sysbios_knl_Swi_restore__E                                   
00009801  ti_sysbios_knl_Swi_runLoop__I                                   
00008ab1  ti_sysbios_knl_Swi_run__I                                       
00008ce9  ti_sysbios_knl_Swi_schedule__I                                  
0000bcf9  ti_sysbios_knl_Swi_startup__E                                   
20008edc  ti_sysbios_knl_Task_Instance_State_0_hookEnv__A                 
200088d8  ti_sysbios_knl_Task_Instance_State_0_stack__A                   
00004cf9  ti_sysbios_knl_Task_Instance_finalize__E                        
00005581  ti_sysbios_knl_Task_Instance_init__E                            
200088c0  ti_sysbios_knl_Task_Module_State_0_idleTask__A                  
20008498  ti_sysbios_knl_Task_Module_State_0_readyQ__A                    
0000c798  ti_sysbios_knl_Task_Module_State_inactiveQ__O                   
20008888  ti_sysbios_knl_Task_Module__root__V                             
200085fc  ti_sysbios_knl_Task_Module__state__V                            
00007451  ti_sysbios_knl_Task_Module_startup__E                           
0000c554  ti_sysbios_knl_Task_Object__DESC__C                             
0000c0b0  ti_sysbios_knl_Task_Object__PARAMS__C                           
0000c79c  ti_sysbios_knl_Task_Object__count__C                            
0000b2e1  ti_sysbios_knl_Task_Object__delete__S                           
0000b999  ti_sysbios_knl_Task_Object__get__S                              
0000c7a0  ti_sysbios_knl_Task_Object__heap__C                             
2000856c  ti_sysbios_knl_Task_Object__table__V                            
0000bb99  ti_sysbios_knl_Task_Params__init__S                             
000078ad  ti_sysbios_knl_Task_SupportProxy_Module__startupDone__S         
0000bb49  ti_sysbios_knl_Task_SupportProxy_getStackAlignment__E           
0000a769  ti_sysbios_knl_Task_SupportProxy_start__E                       
0000b5b9  ti_sysbios_knl_Task_SupportProxy_swap__E                        
0000c7a4  ti_sysbios_knl_Task_allBlockedFunc__C                           
00009851  ti_sysbios_knl_Task_allBlockedFunction__I                       
000094a9  ti_sysbios_knl_Task_create                                      
0000c7a8  ti_sysbios_knl_Task_defaultStackHeap__C                         
0000c7ac  ti_sysbios_knl_Task_defaultStackSize__C                         
00008865  ti_sysbios_knl_Task_delete                                      
0000b9a9  ti_sysbios_knl_Task_disable__E                                  
0000b451  ti_sysbios_knl_Task_enter__I                                    
00007299  ti_sysbios_knl_Task_exit__E                                     
0000c61c  ti_sysbios_knl_Task_hooks__A                                    
0000c6e8  ti_sysbios_knl_Task_hooks__C                                    
0000c7b0  ti_sysbios_knl_Task_numConstructedTasks__C                      
00004ae9  ti_sysbios_knl_Task_postInit__I                                 
0000a8e9  ti_sysbios_knl_Task_processVitalTaskFlag__I                     
0000b0c9  ti_sysbios_knl_Task_restoreHwi__E                               
0000a919  ti_sysbios_knl_Task_restore__E                                  
000098a1  ti_sysbios_knl_Task_schedule__I                                 
0000bba9  ti_sysbios_knl_Task_self__E                                     
00006981  ti_sysbios_knl_Task_setPri__E                                   
0000b601  ti_sysbios_knl_Task_sleepTimeout__I                             
00005e69  ti_sysbios_knl_Task_sleep__E                                    
00008d49  ti_sysbios_knl_Task_startCore__E                                
0000bd29  ti_sysbios_knl_Task_startup__E                                  
0000b5c5  ti_sysbios_knl_Task_swapReturn                                  
0000a949  ti_sysbios_knl_Task_unblockI__E                                 
0000b6a9  ti_sysbios_knl_Task_unblock__E                                  
200088c4  ti_sysbios_rts_ti_ReentSupport_Module__state__V                 
0000b471  ti_sysbios_rts_ti_ReentSupport_getReent__E                      
0000b471  ti_sysbios_rts_ti_ReentSupport_getReent__F                      
0000b619  ti_sysbios_rts_ti_ReentSupport_getTlsAddr__I                    
0000bbb9  ti_sysbios_rts_ti_ReentSupport_taskRegHook__I                   
20008c18  timerMSP432Objects                                              
20008ee0  timerValueOnTap                                                 
20008e88  timer_params                                                    
0000c6d4  tiposix_mqGate                                                  
20008d34  uartMSP432Objects                                               
00000ef1  uartThread                                                      
20008ee4  uartthread_handler                                              
0000a301  usleep                                                          
0000b833  wcslen                                                          
00000001  xdc_rov_runtime_Mon__checksum                                   
00000001  xdc_rov_runtime_Mon__write                                      
00009a59  xdc_runtime_Core_assignParams__I                                
00007a49  xdc_runtime_Core_constructObject__I                             
00006631  xdc_runtime_Core_createObject__I                                
00008799  xdc_runtime_Core_deleteObject__I                                
0000c7b4  xdc_runtime_Error_E_memory__C                                   
20008740  xdc_runtime_Error_IgnoreBlock                                   
0000b631  xdc_runtime_Error_init__E                                       
0000c7b8  xdc_runtime_Error_policyFxn__C                                  
0000b0f1  xdc_runtime_Error_policyMin__E                                  
0000be6f  xdc_runtime_Error_policy__C                                     
0000bbc9  xdc_runtime_Gate_enterSystem__E                                 
0000b9b9  xdc_runtime_Gate_leaveSystem__E                                 
0000c7bc  xdc_runtime_IGateProvider_Interface__BASE__C                    
0000c7c0  xdc_runtime_IHeap_Interface__BASE__C                            
0000c7c4  xdc_runtime_IModule_Interface__BASE__C                          
0000abc1  xdc_runtime_Main_Module_GateProxy_Handle__label__S              
0000bd11  xdc_runtime_Main_Module_GateProxy_query__E                      
0000ac19  xdc_runtime_Memory_HeapProxy_Handle__label__S                   
0000bc6b  xdc_runtime_Memory_HeapProxy_alloc__E                           
0000bc75  xdc_runtime_Memory_HeapProxy_free__E                            
0000c7f6  xdc_runtime_Memory_Module__id__C                                
200088c8  xdc_runtime_Memory_Module__state__V                             
00007711  xdc_runtime_Memory_alloc__E                                     
0000c7c8  xdc_runtime_Memory_defaultHeapInstance__C                       
0000b9c9  xdc_runtime_Memory_free__E                                      
0000b491  xdc_runtime_Memory_valloc__E                                    
20008890  xdc_runtime_Startup_Module__state__V                            
00000001  xdc_runtime_Startup__EXECFXN__C                                 
00000001  xdc_runtime_Startup__RESETFXN__C                                
0000c7cc  xdc_runtime_Startup_execImpl__C                                 
00008da9  xdc_runtime_Startup_exec__E                                     
0000b845  xdc_runtime_Startup_exec__I                                     
0000c6bc  xdc_runtime_Startup_firstFxns__A                                
0000c6f0  xdc_runtime_Startup_firstFxns__C                                
0000c6f8  xdc_runtime_Startup_lastFxns__C                                 
0000c7d0  xdc_runtime_Startup_maxPasses__C                                
0000325d  xdc_runtime_Startup_reset__I                                    
0000bbd9  xdc_runtime_Startup_rtsDone__E                                  
0000c648  xdc_runtime_Startup_sfxnRts__A                                  
0000c7d4  xdc_runtime_Startup_sfxnRts__C                                  
0000c3d0  xdc_runtime_Startup_sfxnTab__A                                  
0000c7d8  xdc_runtime_Startup_sfxnTab__C                                  
00004bf1  xdc_runtime_Startup_startMods__I                                
0000c7dc  xdc_runtime_SysCallback_abortFxn__C                             
0000b9d9  xdc_runtime_SysCallback_abort__E                                
0000bd49  xdc_runtime_SysCallback_defaultAbort                            
0000bd51  xdc_runtime_SysCallback_defaultExit                             
0000c7e0  xdc_runtime_SysCallback_exitFxn__C                              
0000b9e9  xdc_runtime_SysCallback_exit__E                                 
0000abc1  xdc_runtime_System_Module_GateProxy_Handle__label__S            
0000898d  xdc_runtime_System_Module_GateProxy_enter__E                    
00008c85  xdc_runtime_System_Module_GateProxy_leave__E                    
0000bd11  xdc_runtime_System_Module_GateProxy_query__E                    
20008898  xdc_runtime_System_Module_State_0_atexitHandlers__A             
0000c7e4  xdc_runtime_System_Module__gateObj__C                           
200088a0  xdc_runtime_System_Module__state__V                             
0000bd01  xdc_runtime_System_Module_startup__E                            
0000b9d9  xdc_runtime_System_SupportProxy_abort__E                        
0000b9e9  xdc_runtime_System_SupportProxy_exit__E                         
0000c7e8  xdc_runtime_System_abortFxn__C                                  
0000bd59  xdc_runtime_System_abortSpin__E                                 
0000b119  xdc_runtime_System_abort__E                                     
00009c89  xdc_runtime_System_atexit__E                                    
0000c7ec  xdc_runtime_System_exitFxn__C                                   
0000bd61  xdc_runtime_System_exitSpin__E                                  
0000b649  xdc_runtime_System_exit__E                                      
0000c7f0  xdc_runtime_System_maxAtexitHandlers__C                         
0000a341  xdc_runtime_System_processAtExit__E                             


GLOBAL SYMBOLS: SORTED BY Symbol Address 

address   name                                                            
-------   ----                                                            
00000000  __ASM__                                                         
00000000  ti_sysbios_family_arm_m3_Hwi_resetVectors                       
00000001  xdc_rov_runtime_Mon__checksum                                   
00000001  xdc_rov_runtime_Mon__write                                      
00000001  xdc_runtime_Startup__EXECFXN__C                                 
00000001  xdc_runtime_Startup__RESETFXN__C                                
00000041  __TI_printfi                                                    
0000007f  __ISA__                                                         
00000092  __PLAT__                                                        
000000b5  __TARG__                                                        
000000db  __TRDR__                                                        
00000400  __STACK_SIZE                                                    
00000a8f  Board_initHook                                                  
00000a91  strtod                                                          
00000a91  strtold                                                         
00000ef1  uartThread                                                      
000012e5  UARTMSP432_open                                                 
000015bd  Power_sleep                                                     
00001891  ledThread                                                       
00001b49  debounceTimer_Callback                                          
0000206b  PWMTimerMSP432_init                                             
00002561  LCD_showChar                                                    
00002789  PWMTimerMSP432_open                                             
00002d35  main                                                            
00002ef1  __aeabi_dsub                                                    
00002efb  __aeabi_dadd                                                    
000030a7  PowerMSP432_initPolicy                                          
000030a9  LCD_showTemperatureC                                            
0000325d  ti_sysbios_family_arm_msp432_init_Boot_init__I                  
0000325d  xdc_runtime_Startup_reset__I                                    
00003261  mq_open                                                         
000035b1  temperatureThread                                               
000038e5  GPIO_setConfig                                                  
00003e6d  TimerMSP432_open                                                
000040f5  __aeabi_ddiv                                                    
0000422b  ADCMSP432_control                                               
00004231  ti_sysbios_knl_Semaphore_pend__E                                
00004481  UART_initModule                                                 
0000459d  PWMTimerMSP432_setPeriod                                        
000046b1  gpioButton0_Callback                                            
000047c1  ldexp                                                           
000047c1  ldexpl                                                          
000047c1  scalbn                                                          
000047c1  scalbnl                                                         
000049db  TimerMSP432_init                                                
00004ae5  CPU_wfi                                                         
00004ae9  ti_sysbios_knl_Task_postInit__I                                 
00004bf1  xdc_runtime_Startup_startMods__I                                
00004cf9  ti_sysbios_knl_Task_Instance_finalize__E                        
00004dfd  ADCMSP432_convert                                               
00004ef9  lcdThread                                                       
00004ff5  __aeabi_dmul                                                    
000050f1  pthread_create                                                  
000051e1  ti_sysbios_family_arm_m3_Hwi_dispatch__I                        
000052b5  ti_sysbios_family_arm_m3_Hwi_interruptsAreDisabledButShouldNotBe
000053bb  UARTMSP432_init                                                 
000053bd  CS_startHFXTWithTimeout                                         
000054a1  CS_startLFXTWithTimeout                                         
00005581  ti_sysbios_knl_Task_Instance_init__E                            
00005661  LCD_scrollString                                                
0000573d  UARTMSP432_readPolling                                          
000058f5  ClockP_setTimeout                                               
000058f9  ti_sysbios_knl_Mailbox_Instance_init__E                         
000059d1  ti_sysbios_heaps_HeapMem_alloc__E                               
00005b67  UARTMSP432_hwiIntFxn                                            
00005c2b  _nop                                                            
00005c2d  UARTMSP432_control                                              
00005ced  TimerMSP432_setPeriod                                           
00005da9  TimerMSP432_start                                               
00005e65  ClockP_start                                                    
00005e69  ti_sysbios_knl_Task_sleep__E                                    
00006095  ClockP_stop                                                     
00006099  ti_sysbios_family_arm_m3_Hwi_Instance_init__E                   
00006151  ADC14_configureConversionMemory                                 
00006205  LCD_F_setPinsAsLCDFunction                                      
000062b9  UARTMSP432_writePolling                                         
0000641f  __aeabi_idiv0                                                   
0000641f  __aeabi_ldiv0                                                   
00006421  ti_sysbios_knl_Clock_workFuncDynamic__E                         
0000657f  ti_sysbios_BIOS_nullFunc__I                                     
00006581  GPIO_init                                                       
0000662d  HwiP_disable                                                    
00006631  xdc_runtime_Core_createObject__I                                
0000682d  SemaphoreP_post                                                 
00006831  ti_sysbios_family_arm_msp432_Timer_periodicStub__E              
0000697d  ti_sysbios_BIOS_RtsGateProxy_enter__E                           
00006981  ti_sysbios_knl_Task_setPri__E                                   
00006a25  UARTMSP432_write                                                
00006ac9  __TI_auto_init                                                  
00006c09  PWMTimerMSP432_stop                                             
00006ca5  __aeabi_memcpy                                                  
00006ca5  __aeabi_memcpy4                                                 
00006ca5  __aeabi_memcpy8                                                 
00006ca5  memcpy                                                          
00006e79  LCD_init                                                        
00006f11  UARTMSP432_close                                                
00006fa9  __aeabi_uldivmod                                                
00007041  PWMTimerMSP432_setDuty                                          
000070d5  ti_sysbios_BIOS_RtsGateProxy_leave__E                           
000070d9  _pthread_removeThreadKeys                                       
0000716d  gpioButton1_Callback                                            
00007201  ti_sysbios_family_arm_m3_Hwi_initNVIC__E                        
00007295  ti_sysbios_family_arm_m3_Hwi_delete                             
00007299  ti_sysbios_knl_Task_exit__E                                     
000073c1  cJSON_ParseWithOpts                                             
00007451  ti_sysbios_knl_Task_Module_startup__E                           
000074e1  ADCMSP432_open                                                  
0000756d  Power_init                                                      
00007685  ti_sysbios_family_arm_m3_TaskSupport_buildTaskStack             
00007711  xdc_runtime_Memory_alloc__E                                     
0000779d  GPIO_setAsPeripheralModuleFunctionOutputPin                     
00007825  PWMTimerMSP432_close                                            
000078ad  ti_sysbios_family_arm_m3_TaskSupport_Module__startupDone__S     
000078ad  ti_sysbios_knl_Task_SupportProxy_Module__startupDone__S         
000078b1  ti_sysbios_knl_Mailbox_post__E                                  
00007939  __aeabi_cdcmpeq                                                 
00007939  __aeabi_cdcmple                                                 
000079bf  __aeabi_cdrcmple                                                
00007a45  ti_sysbios_heaps_HeapMem_Module_GateProxy_enter__E              
00007a49  xdc_runtime_Core_constructObject__I                             
00007ad1  PCM_gotoLPM3                                                    
00007b55  TimerMSP432_stop                                                
00007c5d  ti_sysbios_heaps_HeapMem_Module_GateProxy_leave__E              
00007c61  ti_sysbios_family_arm_m3_Hwi_postInit__I                        
00007ce5  ti_sysbios_knl_Clock_TimerProxy_getCurrentTick__E               
00007ce9  ti_sysbios_heaps_HeapMem_free__E                                
00007d6d  PWMTimerMSP432_start                                            
00007ded  floorf                                                          
00007ee9  __aeabi_memclr                                                  
00007ee9  __aeabi_memclr4                                                 
00007ee9  __aeabi_memclr8                                                 
00007eeb  __aeabi_memset                                                  
00007eeb  __aeabi_memset4                                                 
00007eeb  __aeabi_memset8                                                 
00007ef1  memset                                                          
00007f65  TimerMSP432_allocateTimerResource                               
00007fdd  cJSON_Delete                                                    
00008000  HEAPSIZE                                                        
00008055  ti_sysbios_knl_Clock_TimerProxy_getMaxTicks__E                  
00008059  ti_sysbios_knl_Clock_walkQueueDynamic__E                        
000080cd  ti_sysbios_knl_Clock_TimerProxy_setNextTick__E                  
000080d1  ti_sysbios_knl_Mailbox_pend__E                                  
00008145  LCD_F_setPinAsCOM                                               
00008225  ti_sysbios_knl_Clock_delete                                     
00008229  ti_sysbios_heaps_HeapMem_initPrimary__I                         
00008299  ti_sysbios_knl_Mailbox_Instance_finalize__E                     
00008377  roundf                                                          
000083e5  ti_sysbios_knl_Semaphore_delete                                 
000083e9  ti_sysbios_knl_Swi_restoreHwi__E                                
00008455  UARTMSP432_writeCancel                                          
00008529  GPIO_hwiIntFxn                                                  
00008591  PowerMSP432_getFreqs                                            
000085f9  debounceGPIO                                                    
00008661  __TI_decompress_lzss                                            
00008731  ti_sysbios_knl_Clock_startI__E                                  
00008799  xdc_runtime_Core_deleteObject__I                                
00008801  frexp                                                           
00008801  frexpl                                                          
00008865  ti_sysbios_knl_Task_delete                                      
00008869  ti_sysbios_family_arm_m3_Hwi_dispatchC__I                       
000088cd  ADCMSP432_convertToMicroVolts                                   
0000892d  GPIO_setCallback                                                
0000898d  xdc_runtime_System_Module_GateProxy_enter__E                    
00008991  pthread_exit                                                    
000089f1  ti_sysbios_family_arm_msp432_Timer_setNextTick__E               
00008a51  ti_sysbios_knl_Semaphore_post__E                                
00008ab1  ti_sysbios_knl_Swi_run__I                                       
00008b11  PCM_getCoreVoltageLevel                                         
00008b71  LCD_updateAnimationMemory                                       
00008bcd  LCD_updateMemory                                                
00008c29  blinkTimer_Callback                                             
00008c85  xdc_runtime_System_Module_GateProxy_leave__E                    
00008c89  ti_sysbios_family_arm_msp432_Timer_getCurrentTick__E            
00008ce9  ti_sysbios_knl_Swi_schedule__I                                  
00008d49  ti_sysbios_knl_Task_startCore__E                                
00008da9  xdc_runtime_Startup_exec__E                                     
00008e05  PCM_getPowerMode                                                
00008eb9  GPIO_write                                                      
00008f11  _c_int00                                                        
00008fc1  ti_sysbios_family_arm_m3_Hwi_initStacks__E                      
00009071  ADC14_initModule                                                
000090c5  PCM_shutdownDevice                                              
00009119  TimerMSP432_freeTimerResource                                   
0000916d  __TI_ltoa                                                       
000091c1  ti_sysbios_family_arm_m3_Hwi_create                             
00009219  ti_sysbios_family_arm_msp432_Timer_initDevice__I                
0000926d  ti_sysbios_knl_Mailbox_create                                   
00009315  ClockP_create                                                   
00009365  LCD_showString                                                  
00009409  mq_send                                                         
00009459  ti_sysbios_family_arm_m3_Hwi_Module_startup__E                  
000094a9  ti_sysbios_knl_Task_create                                      
000094f9  TimerMSP432_close                                               
00009549  LCD_F_initModule                                                
00009595  PowerMSP432_sleepPolicy                                         
000095e1  atoi                                                            
0000962d  copy_in                                                         
00009711  ti_sysbios_family_arm_msp432_Timer_postInit__I                  
00009761  ti_sysbios_family_arm_msp432_Timer_start__E                     
000097b1  ti_sysbios_heaps_HeapMem_getStats__E                            
00009801  ti_sysbios_knl_Swi_runLoop__I                                   
00009851  ti_sysbios_knl_Task_allBlockedFunction__I                       
000098a1  ti_sysbios_knl_Task_schedule__I                                 
000098ed  Power_releaseConstraint                                         
00009935  __aeabi_d2iz                                                    
00009981  ti_sysbios_family_arm_m3_Hwi_disableInterrupt__E                
00009981  ti_sysbios_hal_Hwi_HwiProxy_disableInterrupt__E                 
00009981  ti_sysbios_hal_Hwi_disableInterrupt__E                          
000099c9  ti_sysbios_family_arm_m3_Hwi_enableInterrupt__E                 
000099c9  ti_sysbios_hal_Hwi_HwiProxy_enableInterrupt__E                  
000099c9  ti_sysbios_hal_Hwi_enableInterrupt__E                           
00009a11  ti_sysbios_knl_Mailbox_Module_startup__E                        
00009a59  xdc_runtime_Core_assignParams__I                                
00009aa1  RingBuf_put                                                     
00009ae9  ADC_init                                                        
00009b2d  PWM_init                                                        
00009b71  Timer_init                                                      
00009bb5  UART_init                                                       
00009bf9  ti_sysbios_family_arm_m3_Hwi_getStackInfo__E                    
00009bf9  ti_sysbios_hal_Hwi_HwiProxy_getStackInfo__E                     
00009bf9  ti_sysbios_hal_Hwi_getStackInfo__E                              
00009c41  ti_sysbios_knl_Swi_post__E                                      
00009c89  xdc_runtime_System_atexit__E                                    
00009ccd  ADCMSP432_close                                                 
00009d0d  ADC_open                                                        
00009d4d  HwiP_create                                                     
00009d8d  LCD_F_setPinAsLCDFunction                                       
00009dcd  PWM_open                                                        
00009e0d  RingBuf_get                                                     
00009e4d  Timer_open                                                      
00009e8d  UARTMSP432_read                                                 
00009ecd  UART_open                                                       
00009f91  mq_receive                                                      
0000a011  sprintf                                                         
0000a051  ti_sysbios_family_arm_msp432_Timer_Module_startup__E            
0000a091  ti_sysbios_family_arm_msp432_Timer_startup__E                   
0000a091  ti_sysbios_knl_Clock_TimerProxy_startup__E                      
0000a0d1  ti_sysbios_heaps_HeapMem_Instance_init__E                       
0000a111  ti_sysbios_knl_Clock_Instance_init__E                           
0000a18f  realloc                                                         
0000a1cd  SemaphoreP_create                                               
0000a209  ti_sysbios_family_arm_m3_Hwi_Instance_finalize__E               
0000a249  ti_sysbios_family_arm_msp432_Seconds_Module_startup__E          
0000a285  ti_sysbios_knl_Clock_create                                     
0000a2c1  ti_sysbios_knl_Swi_restore__E                                   
0000a301  usleep                                                          
0000a341  xdc_runtime_System_processAtExit__E                             
0000a37d  cJSON_GetObjectItemCaseSensitive                                
0000a3b7  LCD_clear                                                       
0000a3f1  Power_setConstraint                                             
0000a429  TimerMSP432_getCount                                            
0000a499  __aeabi_f2d                                                     
0000a4d1  UARTMSP432_readCancel                                           
0000a509  GPIO_clearInt                                                   
0000a53d  GPIO_enableInt                                                  
0000a571  cJSON_GetArrayItem                                              
0000a5a5  rand                                                            
0000a5d9  ti_sysbios_knl_Semaphore_create                                 
0000a611  ti_sysbios_hal_Hwi_initStack                                    
0000a645  ADCMSP432_init                                                  
0000a709  ti_sysbios_BIOS_atExitFunc__I                                   
0000a739  ti_sysbios_BIOS_startFunc__I                                    
0000a769  ti_sysbios_family_arm_m3_TaskSupport_start__E                   
0000a769  ti_sysbios_knl_Task_SupportProxy_start__E                       
0000a799  ti_sysbios_gates_GateHwi_Object__create__S                      
0000a7c9  ti_sysbios_gates_GateMutex_Object__create__S                    
0000a7f9  ti_sysbios_gates_GateMutex_enter__E                             
0000a829  ti_sysbios_heaps_HeapMem_Object__create__S                      
0000a859  ti_sysbios_knl_Mailbox_postInit__I                              
0000a889  ti_sysbios_knl_Semaphore_construct                              
0000a8b9  ti_sysbios_knl_Semaphore_pendTimeout__I                         
0000a8e9  ti_sysbios_knl_Task_processVitalTaskFlag__I                     
0000a919  ti_sysbios_knl_Task_restore__E                                  
0000a949  ti_sysbios_knl_Task_unblockI__E                                 
0000a979  __aeabi_i2d                                                     
0000a9a7  malloc                                                          
0000a9d5  ADC14_getInterruptStatus                                        
0000aa01  ADC14_toggleConversionTrigger                                   
0000aa2d  LCD_F_setAnimationControl                                       
0000aa59  PowerMSP432_updateFreqs                                         
0000aa85  RTC_C_holdClock                                                 
0000aab1  SemaphoreP_createBinary                                         
0000aae1  _pthread_cleanupFxn                                             
0000ab3d  cJSON_GetArraySize                                              
0000ab95  strncmp                                                         
0000abc1  ti_sysbios_gates_GateHwi_Handle__label__S                       
0000abc1  xdc_runtime_Main_Module_GateProxy_Handle__label__S              
0000abc1  xdc_runtime_System_Module_GateProxy_Handle__label__S            
0000abed  ti_sysbios_BIOS_RtsGateProxy_Handle__label__S                   
0000abed  ti_sysbios_gates_GateMutex_Handle__label__S                     
0000abed  ti_sysbios_heaps_HeapMem_Module_GateProxy_Handle__label__S      
0000ac19  ti_sysbios_heaps_HeapMem_Handle__label__S                       
0000ac19  xdc_runtime_Memory_HeapProxy_Handle__label__S                   
0000ac45  ti_sysbios_knl_Queue_construct                                  
0000ac71  sem_init                                                        
0000ac9d  ADC14_enableConversion                                          
0000acc5  ADC14_getResult                                                 
0000aced  PCM_gotoLPM0                                                    
0000ad15  Power_registerNotify                                            
0000adb5  intervalTimer_Callback                                          
0000addd  ti_sysbios_family_arm_m3_Hwi_excHandlerAsm__I                   
0000ae09  ti_sysbios_knl_Clock_addI__E                                    
0000ae31  ti_sysbios_knl_Swi_Module_startup__E                            
0000ae59  List_put                                                        
0000ae7f  List_remove                                                     
0000aef1  ti_sysbios_family_arm_m3_Hwi_pendSV__I                          
0000af15  ti_sysbios_family_arm_m3_Hwi_return                             
0000af19  WDT_A_holdTimer                                                 
0000af3d  cJSON_IsArray                                                   
0000af61  pthread_attr_init                                               
0000af85  srand                                                           
0000afa9  ti_sysbios_BIOS_registerRTSLock__I                              
0000afcd  ti_sysbios_BIOS_removeRTSLock__I                                
0000aff1  ti_sysbios_family_arm_msp432_ClockFreqs_setFrequency__E         
0000b015  ti_sysbios_gates_GateMutex_Object__delete__S                    
0000b039  ti_sysbios_knl_Clock_Module_startup__E                          
0000b05d  ti_sysbios_knl_Clock_Object__delete__S                          
0000b081  ti_sysbios_knl_Semaphore_Instance_init__E                       
0000b0a5  ti_sysbios_knl_Semaphore_Object__delete__S                      
0000b0c9  ti_sysbios_knl_Task_restoreHwi__E                               
0000b0f1  xdc_runtime_Error_policyMin__E                                  
0000b119  xdc_runtime_System_abort__E                                     
0000b161  CS_setExternalClockSourceFrequency                              
0000b181  GPIO_read                                                       
0000b1a1  Power_unregisterNotify                                          
0000b1c1  REF_A_setReferenceVoltage                                       
0000b1e1  RingBuf_peek                                                    
0000b201  ti_sysbios_BIOS_rtsLock__I                                      
0000b221  ti_sysbios_family_arm_m3_Hwi_Object__delete__S                  
0000b241  ti_sysbios_gates_GateHwi_Object__delete__S                      
0000b261  ti_sysbios_heaps_HeapMem_Object__delete__S                      
0000b281  ClockP_getSystemTicks                                           
0000b281  ti_sysbios_knl_Clock_getTicks__E                                
0000b2a1  ti_sysbios_knl_Idle_run__E                                      
0000b2c1  ti_sysbios_knl_Semaphore_destruct                               
0000b2e1  ti_sysbios_knl_Task_Object__delete__S                           
0000b31f  ti_sysbios_family_xxx_Hwi_switchAndRunFunc                      
0000b33d  SysCtl_A_getTempCalibrationConstant                             
0000b359  memccpy                                                         
0000b379  ti_sysbios_family_arm_m3_Hwi_excHandler__I                      
0000b399  ti_sysbios_gates_GateMutex_Instance_init__E                     
0000b3b9  ti_sysbios_knl_Clock_Instance_finalize__E                       
0000b3d9  ti_sysbios_knl_Clock_scheduleNextTick__E                        
0000b3f5  ti_sysbios_knl_Queue_destruct                                   
0000b411  ti_sysbios_knl_Queue_get__E                                     
0000b431  ti_sysbios_knl_Queue_put__E                                     
0000b451  ti_sysbios_knl_Task_enter__I                                    
0000b471  ti_sysbios_rts_ti_ReentSupport_getReent__E                      
0000b471  ti_sysbios_rts_ti_ReentSupport_getReent__F                      
0000b491  xdc_runtime_Memory_valloc__E                                    
0000b4ad  copysign                                                        
0000b4ad  copysignl                                                       
0000b4c7  free                                                            
0000b4e1  SysCtl_A_disableNMISource                                       
0000b4f9  SysCtl_A_enableNMISource                                        
0000b511  UART_Params_init                                                
0000b529  _args_main                                                      
0000b571  strcmp                                                          
0000b589  ti_sysbios_BIOS_rtsUnlock__I                                    
0000b5a1  ti_sysbios_family_arm_m3_Hwi_Module__startupDone__F             
0000b5a1  ti_sysbios_family_arm_m3_Hwi_Module__startupDone__S             
0000b5a1  ti_sysbios_hal_Hwi_HwiProxy_Module__startupDone__S              
0000b5b9  ti_sysbios_family_arm_m3_TaskSupport_swap__E                    
0000b5b9  ti_sysbios_knl_Task_SupportProxy_swap__E                        
0000b5c5  ti_sysbios_knl_Task_swapReturn                                  
0000b5d1  ti_sysbios_family_arm_msp432_Timer_Module__startupDone__F       
0000b5d1  ti_sysbios_family_arm_msp432_Timer_Module__startupDone__S       
0000b5d1  ti_sysbios_knl_Clock_TimerProxy_Module__startupDone__S          
0000b5e9  ti_sysbios_gates_GateMutex_leave__E                             
0000b601  ti_sysbios_knl_Task_sleepTimeout__I                             
0000b619  ti_sysbios_rts_ti_ReentSupport_getTlsAddr__I                    
0000b631  xdc_runtime_Error_init__E                                       
0000b649  xdc_runtime_System_exit__E                                      
0000b661  strchr                                                          
0000b677  ti_sysbios_BIOS_exitFunc__I                                     
0000b691  ti_sysbios_knl_Clock_start__E                                   
0000b6a9  ti_sysbios_knl_Task_unblock__E                                  
0000b6bf  LCD_startAnimation                                              
0000b6d5  PCM_getPowerState                                               
0000b6e9  PWM_Params_init                                                 
0000b6fd  Power_idleFunc                                                  
0000b729  pthread_attr_setschedparam                                      
0000b73d  strcpy                                                          
0000b751  strlen                                                          
0000b765  ti_sysbios_family_arm_m3_Hwi_Object__get__S                     
0000b779  ti_sysbios_family_arm_m3_Hwi_switchFromBootStack__E             
0000b779  ti_sysbios_hal_Hwi_HwiProxy_switchFromBootStack__E              
0000b779  ti_sysbios_hal_Hwi_switchFromBootStack__E                       
0000b78d  ti_sysbios_heaps_HeapMem_Object__get__S                         
0000b7a1  ti_sysbios_knl_Clock_doTick__I                                  
0000b7b5  ti_sysbios_knl_Swi_Object__get__S                               
0000b7c9  RingBuf_construct                                               
0000b7db  SemaphoreP_pend                                                 
0000b7f1  _pthread_cleanup_pop                                            
0000b803  PWMTimerMSP432_control                                          
0000b81b  PWMTimerMSP432_setDutyAndPeriod                                 
0000b821  ti_sysbios_hal_Hwi_Module_startup__E                            
0000b833  wcslen                                                          
0000b845  xdc_runtime_Startup_exec__I                                     
0000b869  HwiP_Params_init                                                
0000b879  PCM_gotoLPM4                                                    
0000b889  PCM_setPowerMode                                                
0000b899  PCM_setPowerState                                               
0000b8a9  PowerMSP432_getNumPerfLevels                                    
0000b8b9  SysCtl_A_getNMISourceStatus                                     
0000b8c9  Timer_Params_init                                               
0000b8d9  cJSON_Parse                                                     
0000b8f9  ti_sysbios_BIOS_exit__E                                         
0000b909  ti_sysbios_BIOS_setCpuFreq__E                                   
0000b919  ti_sysbios_BIOS_setThreadType__E                                
0000b929  ti_sysbios_BIOS_start__E                                        
0000b939  ti_sysbios_family_arm_m3_TaskSupport_glue                       
0000b949  ti_sysbios_family_arm_msp432_init_Boot_disableWatchdog          
0000b959  ti_sysbios_gates_GateMutex_Instance_finalize__E                 
0000b969  ti_sysbios_knl_Mailbox_Object__get__S                           
0000b979  ti_sysbios_knl_Semaphore_Instance_finalize__E                   
0000b989  ti_sysbios_knl_Swi_disable__E                                   
0000b999  ti_sysbios_knl_Task_Object__get__S                              
0000b9a9  ti_sysbios_knl_Task_disable__E                                  
0000b9b9  xdc_runtime_Gate_leaveSystem__E                                 
0000b9c9  xdc_runtime_Memory_free__E                                      
0000b9d9  xdc_runtime_SysCallback_abort__E                                
0000b9d9  xdc_runtime_System_SupportProxy_abort__E                        
0000b9e9  xdc_runtime_SysCallback_exit__E                                 
0000b9e9  xdc_runtime_System_SupportProxy_exit__E                         
0000b9f9  __TI_decompress_none                                            
0000ba09  pthread_attr_setdetachstate                                     
0000ba19  sem_wait                                                        
0000ba29  ti_sysbios_knl_Idle_loop__E                                     
0000ba37  Board_init                                                      
0000ba43  CPU_cpsid                                                       
0000ba4f  CPU_cpsie                                                       
0000ba5b  ClockP_delete                                                   
0000ba67  HwiP_delete                                                     
0000ba75  LCD_F_clearAllAnimationMemory                                   
0000ba81  LCD_F_clearAllBlinkingMemory                                    
0000ba8d  LCD_F_clearAllMemory                                            
0000ba99  LCD_F_disableAnimation                                          
0000baa5  LCD_F_enableAnimation                                           
0000bab1  LCD_F_turnOff                                                   
0000babd  LCD_F_turnOn                                                    
0000bac9  Power_getConstraintMask                                         
0000bad5  Power_getPerformanceLevel                                       
0000bae1  REF_A_enableReferenceVoltage                                    
0000baed  REF_A_enableTempSensor                                          
0000baf9  SemaphoreP_delete                                               
0000bb05  _register_lock                                                  
0000bb11  _register_unlock                                                
0000bb1d  __TI_zero_init                                                  
0000bb29  ti_sysbios_family_arm_m3_Hwi_Params__init__S                    
0000bb29  ti_sysbios_hal_Hwi_HwiProxy_Params__init__S                     
0000bb39  ti_sysbios_family_arm_m3_Hwi_disableFxn__E                      
0000bb39  ti_sysbios_hal_Hwi_HwiProxy_disable__E                          
0000bb49  ti_sysbios_family_arm_m3_TaskSupport_getStackAlignment__E       
0000bb49  ti_sysbios_knl_Task_SupportProxy_getStackAlignment__E           
0000bb59  ti_sysbios_family_arm_msp432_Timer_getMaxTicks__E               
0000bb69  ti_sysbios_gates_GateHwi_enter__E                               
0000bb75  ti_sysbios_knl_Clock_Params__init__S                            
0000bb81  ti_sysbios_knl_Queue_Object__get__S                             
0000bb8d  ti_sysbios_knl_Semaphore_Params__init__S                        
0000bb99  ti_sysbios_knl_Task_Params__init__S                             
0000bba9  ti_sysbios_knl_Task_self__E                                     
0000bbb9  ti_sysbios_rts_ti_ReentSupport_taskRegHook__I                   
0000bbc9  xdc_runtime_Gate_enterSystem__E                                 
0000bbd9  xdc_runtime_Startup_rtsDone__E                                  
0000bbe5  ADC_Params_init                                                 
0000bbef  ADC_convert                                                     
0000bbf9  ClockP_Params_init                                              
0000bc03  PWM_setDuty                                                     
0000bc0d  PWM_start                                                       
0000bc17  PWM_stop                                                        
0000bc21  Timer_close                                                     
0000bc2b  Timer_getCount                                                  
0000bc35  Timer_start                                                     
0000bc3f  Timer_stop                                                      
0000bc49  UART_read                                                       
0000bc61  sem_post                                                        
0000bc6b  xdc_runtime_Memory_HeapProxy_alloc__E                           
0000bc75  xdc_runtime_Memory_HeapProxy_free__E                            
0000bc7f  LCD_stopAnimation                                               
0000bc87  SemaphoreP_Params_init                                          
0000bc91  pthread_attr_setstacksize                                       
0000bca1  ti_sysbios_family_arm_m3_Hwi_doSwiRestore__I                    
0000bca9  ti_sysbios_family_arm_m3_Hwi_startup__E                         
0000bca9  ti_sysbios_hal_Hwi_HwiProxy_startup__E                          
0000bca9  ti_sysbios_hal_Hwi_startup__E                                   
0000bcc1  TimerMSP432_control                                             
0000bcc9  ti_sysbios_family_arm_m3_Hwi_doTaskRestore__I                   
0000bcd1  HwiP_restore                                                    
0000bcd1  ti_sysbios_family_arm_m3_Hwi_restoreFxn__E                      
0000bcd1  ti_sysbios_hal_Hwi_HwiProxy_restore__E                          
0000bcd9  ti_sysbios_gates_GateHwi_leave__E                               
0000bce1  ti_sysbios_heaps_HeapMem_isBlocking__E                          
0000bce9  ti_sysbios_knl_Clock_stop__E                                    
0000bcf1  ti_sysbios_knl_Queue_Instance_init__E                           
0000bcf9  ti_sysbios_knl_Swi_startup__E                                   
0000bd01  xdc_runtime_System_Module_startup__E                            
0000bd09  __aeabi_errno_addr                                              
0000bd11  ti_sysbios_gates_GateHwi_query__E                               
0000bd11  xdc_runtime_Main_Module_GateProxy_query__E                      
0000bd11  xdc_runtime_System_Module_GateProxy_query__E                    
0000bd19  ti_sysbios_BIOS_RtsGateProxy_query__E                           
0000bd19  ti_sysbios_gates_GateMutex_query__E                             
0000bd19  ti_sysbios_heaps_HeapMem_Module_GateProxy_query__E              
0000bd21  ti_sysbios_knl_Clock_setTimeout__E                              
0000bd29  ti_sysbios_knl_Task_startup__E                                  
0000bd31  ti_sysbios_BIOS_linkedWithIncorrectBootLibrary__E               
0000bd39  ti_sysbios_gates_GateHwi_Instance_init__E                       
0000bd41  ti_sysbios_knl_Clock_logTick__E                                 
0000bd49  xdc_runtime_SysCallback_defaultAbort                            
0000bd51  xdc_runtime_SysCallback_defaultExit                             
0000bd59  xdc_runtime_System_abortSpin__E                                 
0000bd61  xdc_runtime_System_exitSpin__E                                  
0000bd68  _ctypes_                                                        
0000be6f  xdc_runtime_Error_policy__C                                     
0000bfb8  alphabetUppercase                                               
0000c0b0  ti_sysbios_knl_Task_Object__PARAMS__C                           
0000c0ec  PowerMSP432_config                                              
0000c124  ti_sysbios_knl_Mailbox_Object__PARAMS__C                        
0000c188  TimerMSP432HWAttrs                                              
0000c1b8  ti_sysbios_family_arm_m3_Hwi_Object__PARAMS__C                  
0000c214  UARTMSP432_fxnTable                                             
0000c23c  digit                                                           
0000c264  ti_sysbios_heaps_HeapMem_Module__FXNS__C                        
0000c28c  PWMTimerMSP432_fxnTable                                         
0000c2b0  PWM_config                                                      
0000c2d4  Timer_config                                                    
0000c2f8  UART_defaultParams                                              
0000c31c  ti_sysbios_gates_GateHwi_Module__FXNS__C                        
0000c340  ti_sysbios_gates_GateMutex_Module__FXNS__C                      
0000c364  ti_sysbios_heaps_HeapMem_Object__PARAMS__C                      
0000c388  ti_sysbios_knl_Clock_Object__PARAMS__C                          
0000c3ac  ti_sysbios_knl_Semaphore_Object__PARAMS__C                      
0000c3d0  xdc_runtime_Startup_sfxnTab__A                                  
0000c3f4  TimerMSP432_Timer32_fxnTable                                    
0000c414  TimerMSP432_Timer_A_fxnTable                                    
0000c454  ti_sysbios_family_arm_m3_Hwi_Object__DESC__C                    
0000c474  ti_sysbios_gates_GateHwi_Object__DESC__C                        
0000c494  ti_sysbios_gates_GateMutex_Object__DESC__C                      
0000c4b4  ti_sysbios_heaps_HeapMem_Object__DESC__C                        
0000c4d4  ti_sysbios_knl_Clock_Object__DESC__C                            
0000c4f4  ti_sysbios_knl_Mailbox_Object__DESC__C                          
0000c514  ti_sysbios_knl_Queue_Object__DESC__C                            
0000c534  ti_sysbios_knl_Semaphore_Object__DESC__C                        
0000c554  ti_sysbios_knl_Task_Object__DESC__C                             
0000c574  ADCMSP432_fxnTable                                              
0000c58c  PWM_defaultParams                                               
0000c5a4  lcdConf                                                         
0000c5bc  pwmTimerMSP432HWAttrs                                           
0000c5d4  ti_sysbios_gates_GateHwi_Object__PARAMS__C                      
0000c5ec  ti_sysbios_gates_GateMutex_Object__PARAMS__C                    
0000c604  ti_sysbios_knl_Queue_Object__PARAMS__C                          
0000c61c  ti_sysbios_knl_Task_hooks__A                                    
0000c634  GPIOMSP432_config                                               
0000c648  xdc_runtime_Startup_sfxnRts__A                                  
0000c65a  ti_sysbios_family_arm_m3_Hwi_Module__id__C                      
0000c66c  adcMSP432HWAttrs                                                
0000c68c  ADC_config                                                      
0000c698  UART_config                                                     
0000c6bc  xdc_runtime_Startup_firstFxns__A                                
0000c6c8  ADC_defaultParams                                               
0000c6d0  heap0                                                           
0000c6d4  tiposix_mqGate                                                  
0000c6d8  ti_sysbios_knl_Idle_funcList__A                                 
0000c6e0  ti_sysbios_knl_Idle_funcList__C                                 
0000c6e8  ti_sysbios_knl_Task_hooks__C                                    
0000c6f0  xdc_runtime_Startup_firstFxns__C                                
0000c6f8  xdc_runtime_Startup_lastFxns__C                                 
0000c706  lcdPositions                                                    
0000c71c  ADC_count                                                       
0000c71d  PWM_count                                                       
0000c71e  Timer_count                                                     
0000c71f  UART_count                                                      
0000c720  ti_sysbios_family_arm_m3_Hwi_E_alreadyDefined__C                
0000c724  ti_sysbios_family_arm_m3_Hwi_E_badIntNum__C                     
0000c728  ti_sysbios_family_arm_m3_Hwi_NUM_INTERRUPTS__C                  
0000c72c  ti_sysbios_family_arm_m3_Hwi_Object__count__C                   
0000c730  ti_sysbios_family_arm_m3_Hwi_ccr__C                             
0000c734  ti_sysbios_family_arm_m3_Hwi_excHandlerFunc__C                  
0000c738  ti_sysbios_family_arm_m3_Hwi_nullIsrFunc__C                     
0000c73c  ti_sysbios_family_arm_m3_Hwi_priGroup__C                        
0000c740  ti_sysbios_family_arm_m3_Hwi_swiDisable__C                      
0000c744  ti_sysbios_family_arm_m3_Hwi_swiRestore__C                      
0000c748  ti_sysbios_family_arm_m3_TaskSupport_stackAlignment__C          
0000c74c  ti_sysbios_family_arm_msp432_Timer_numTimerDevices__C           
0000c750  ti_sysbios_family_arm_msp432_Timer_startupNeeded__C             
0000c754  ti_sysbios_gates_GateMutex_Instance_State_sem__O                
0000c758  ti_sysbios_heaps_HeapMem_E_memory__C                            
0000c75c  ti_sysbios_heaps_HeapMem_Module__gateObj__C                     
0000c760  ti_sysbios_heaps_HeapMem_Object__count__C                       
0000c764  ti_sysbios_heaps_HeapMem_primaryHeapBaseAddr__C                 
0000c768  ti_sysbios_heaps_HeapMem_primaryHeapEndAddr__C                  
0000c76c  ti_sysbios_heaps_HeapMem_reqAlign__C                            
0000c770  ti_sysbios_knl_Clock_Module_State_clockQ__O                     
0000c774  ti_sysbios_knl_Clock_tickPeriod__C                              
0000c778  ti_sysbios_knl_Mailbox_Instance_State_dataQue__O                
0000c77c  ti_sysbios_knl_Mailbox_Instance_State_dataSem__O                
0000c780  ti_sysbios_knl_Mailbox_Instance_State_freeQue__O                
0000c784  ti_sysbios_knl_Mailbox_Instance_State_freeSem__O                
0000c788  ti_sysbios_knl_Mailbox_Object__count__C                         
0000c78c  ti_sysbios_knl_Mailbox_maxTypeAlign__C                          
0000c790  ti_sysbios_knl_Semaphore_Instance_State_pendQ__O                
0000c794  ti_sysbios_knl_Swi_Object__count__C                             
0000c798  ti_sysbios_knl_Task_Module_State_inactiveQ__O                   
0000c79c  ti_sysbios_knl_Task_Object__count__C                            
0000c7a0  ti_sysbios_knl_Task_Object__heap__C                             
0000c7a4  ti_sysbios_knl_Task_allBlockedFunc__C                           
0000c7a8  ti_sysbios_knl_Task_defaultStackHeap__C                         
0000c7ac  ti_sysbios_knl_Task_defaultStackSize__C                         
0000c7b0  ti_sysbios_knl_Task_numConstructedTasks__C                      
0000c7b4  xdc_runtime_Error_E_memory__C                                   
0000c7b8  xdc_runtime_Error_policyFxn__C                                  
0000c7bc  xdc_runtime_IGateProvider_Interface__BASE__C                    
0000c7c0  xdc_runtime_IHeap_Interface__BASE__C                            
0000c7c4  xdc_runtime_IModule_Interface__BASE__C                          
0000c7c8  xdc_runtime_Memory_defaultHeapInstance__C                       
0000c7cc  xdc_runtime_Startup_execImpl__C                                 
0000c7d0  xdc_runtime_Startup_maxPasses__C                                
0000c7d4  xdc_runtime_Startup_sfxnRts__C                                  
0000c7d8  xdc_runtime_Startup_sfxnTab__C                                  
0000c7dc  xdc_runtime_SysCallback_abortFxn__C                             
0000c7e0  xdc_runtime_SysCallback_exitFxn__C                              
0000c7e4  xdc_runtime_System_Module__gateObj__C                           
0000c7e8  xdc_runtime_System_abortFxn__C                                  
0000c7ec  xdc_runtime_System_exitFxn__C                                   
0000c7f0  xdc_runtime_System_maxAtexitHandlers__C                         
0000c7f4  ti_sysbios_heaps_HeapMem_Module__id__C                          
0000c7f6  xdc_runtime_Memory_Module__id__C                                
0000c7f8  __TI_static_base__                                              
0000ca48  __TI_Handler_Table_Base                                         
0000ca54  __TI_Handler_Table_Limit                                        
0000ca60  __TI_CINIT_Base                                                 
0000ca70  __TI_CINIT_Limit                                                
20000000  __start___llvm_prf_cnts                                         
20000000  __stop___llvm_prf_cnts                                          
20000000  ti_sysbios_family_arm_m3_Hwi_ramVectors                         
20000140  __primary_heap_start__                                          
20008140  PowerMSP432_perfLevels                                          
20008140  __primary_heap_end__                                            
20008418  ti_sysbios_knl_Swi_Module_State_0_readyQ__A                     
20008498  ti_sysbios_knl_Task_Module_State_0_readyQ__A                    
20008518  ti_sysbios_gates_GateMutex_Object__table__V                     
2000856c  ti_sysbios_knl_Task_Object__table__V                            
200085b8  ti_sysbios_family_arm_msp432_Timer_Object__table__V             
200085fc  ti_sysbios_knl_Task_Module__state__V                            
20008640  ti_sysbios_family_arm_m3_Hwi_Module__state__V                   
20008674  ti_sysbios_knl_Swi_Object__table__V                             
200086a4  PowerMSP432_module                                              
200086d0  ti_sysbios_knl_Clock_Module__state__V                           
200086fc  ti_sysbios_BIOS_Module__state__V                                
20008720  ti_sysbios_family_arm_msp432_Timer_Module_State_0_device__A     
20008740  xdc_runtime_Error_IgnoreBlock                                   
20008760  ti_sysbios_knl_Swi_Module__state__V                             
2000877c  ti_sysbios_family_arm_m3_Hwi_Object__table__V                   
20008794  ti_sysbios_heaps_HeapMem_Object__table__V                       
200087c4  counting                                                        
200087c5  enteringTempMode                                                
200087c6  enteringIntTempMode                                             
200087c7  enteringExtTempMode                                             
200087c8  inTempMode                                                      
200087c9  externaltempSensor                                              
200087ca  scrolling                                                       
200087cc  numIntervals                                                    
200087ce  S1buttonDebounce                                                
200087d0  S2buttonDebounce                                                
200087d8  ledTogglePeriods                                                
200087ec  ti_sysbios_family_arm_msp432_Timer_Module_State_0_handles__A    
20008808  gpioCallbackFunctions                                           
20008814  gpioPinConfigs                                                  
20008820  ti_sysbios_family_arm_msp432_ClockFreqs_Module__state__V        
2000882c  ti_sysbios_family_arm_msp432_Timer_Module__state__V             
20008838  _lock                                                           
2000883c  _unlock                                                         
20008848  ti_sysbios_family_arm_m3_Hwi_Module__root__V                    
20008850  ti_sysbios_gates_GateHwi_Module__root__V                        
20008858  ti_sysbios_gates_GateMutex_Module__root__V                      
20008860  ti_sysbios_heaps_HeapMem_Module__root__V                        
20008868  ti_sysbios_knl_Clock_Module__root__V                            
20008870  ti_sysbios_knl_Mailbox_Module__root__V                          
20008878  ti_sysbios_knl_Queue_Module__root__V                            
20008880  ti_sysbios_knl_Semaphore_Module__root__V                        
20008888  ti_sysbios_knl_Task_Module__root__V                             
20008890  xdc_runtime_Startup_Module__state__V                            
20008898  xdc_runtime_System_Module_State_0_atexitHandlers__A             
200088a0  xdc_runtime_System_Module__state__V                             
200088b0  main_func_sp                                                    
200088b4  ti_sysbios_family_arm_m3_Hwi_Module_State_0_excContext__A       
200088b8  ti_sysbios_family_arm_m3_Hwi_Module_State_0_excStack__A         
200088bc  ti_sysbios_gates_GateHwi_Object__table__V                       
200088c0  ti_sysbios_knl_Task_Module_State_0_idleTask__A                  
200088c4  ti_sysbios_rts_ti_ReentSupport_Module__state__V                 
200088c8  xdc_runtime_Memory_Module__state__V                             
200088ce  pwmPeriod                                                       
200088d0  ti_sysbios_family_arm_m3_Hwi_Module_State_0_excActive__A        
200088d8  ti_sysbios_knl_Task_Instance_State_0_stack__A                   
20008ad8  ti_sysbios_family_arm_m3_Hwi_dispatchTable                      
20008c18  timerMSP432Objects                                              
20008cb4  rxString                                                        
20008d34  uartMSP432Objects                                               
20008de4  pwmTimerMSP432Objects                                           
20008e28  semLCD                                                          
20008e44  semLED                                                          
20008e60  semTemp                                                         
20008e7c  pwms                                                            
20008e88  timer_params                                                    
20008e9c  dutys                                                           
20008eb0  ClockP_tickPeriod                                               
20008eb4  adcMSP432Objects                                                
20008eb8  blinkTimer                                                      
20008ebc  debounceTimer                                                   
20008ec0  intervalTimer                                                   
20008ec4  lcdthread_handler                                               
20008ec8  ledthread_handler                                               
20008ecc  mqLCD                                                           
20008ed0  mqLED                                                           
20008ed4  rxJSONObject                                                    
20008ed8  temperatureThread_handler                                       
20008edc  ti_sysbios_knl_Task_Instance_State_0_hookEnv__A                 
20008ee0  timerValueOnTap                                                 
20008ee4  uartthread_handler                                              
2003fc00  __stack                                                         
20040000  __STACK_END                                                     
4000480c  WDTCTL_SYM                                                      
e000e000  ti_sysbios_family_arm_m3_Hwi_nvic                               
ffffffff  __TI_pprof_out_hndl                                             
ffffffff  __TI_prof_data_size                                             
ffffffff  __TI_prof_data_start                                            
ffffffff  __binit__                                                       
ffffffff  __c_args__                                                      
ffffffff  binit                                                           
UNDEFED   SHT$$INIT_ARRAY$$Base                                           
UNDEFED   SHT$$INIT_ARRAY$$Limit                                          

[732 symbols]
